
a.exe:     file format pei-i386


Disassembly of section .text:

00401000 <.text>:
  401000:	83 ec 1c             	sub    $0x1c,%esp
  401003:	8b 44 24 20          	mov    0x20(%esp),%eax
  401007:	8b 00                	mov    (%eax),%eax
  401009:	8b 00                	mov    (%eax),%eax
  40100b:	3d 93 00 00 c0       	cmp    $0xc0000093,%eax
  401010:	74 1b                	je     40102d <.text+0x2d>
  401012:	77 4c                	ja     401060 <.text+0x60>
  401014:	3d 1d 00 00 c0       	cmp    $0xc000001d,%eax
  401019:	0f 84 cc 00 00 00    	je     4010eb <.text+0xeb>
  40101f:	76 7f                	jbe    4010a0 <.text+0xa0>
  401021:	05 73 ff ff 3f       	add    $0x3fffff73,%eax
  401026:	31 d2                	xor    %edx,%edx
  401028:	83 f8 04             	cmp    $0x4,%eax
  40102b:	77 27                	ja     401054 <.text+0x54>
  40102d:	c7 44 24 04 00 00 00 	movl   $0x0,0x4(%esp)
  401034:	00 
  401035:	c7 04 24 08 00 00 00 	movl   $0x8,(%esp)
  40103c:	e8 e3 2d 00 00       	call   403e24 <_signal>
  401041:	83 f8 01             	cmp    $0x1,%eax
  401044:	0f 84 d6 00 00 00    	je     401120 <.text+0x120>
  40104a:	85 c0                	test   %eax,%eax
  40104c:	0f 85 fe 00 00 00    	jne    401150 <.text+0x150>
  401052:	31 d2                	xor    %edx,%edx
  401054:	89 d0                	mov    %edx,%eax
  401056:	83 c4 1c             	add    $0x1c,%esp
  401059:	c2 04 00             	ret    $0x4
  40105c:	8d 74 26 00          	lea    0x0(%esi,%eiz,1),%esi
  401060:	3d 94 00 00 c0       	cmp    $0xc0000094,%eax
  401065:	75 79                	jne    4010e0 <.text+0xe0>
  401067:	c7 44 24 04 00 00 00 	movl   $0x0,0x4(%esp)
  40106e:	00 
  40106f:	c7 04 24 08 00 00 00 	movl   $0x8,(%esp)
  401076:	e8 a9 2d 00 00       	call   403e24 <_signal>
  40107b:	83 f8 01             	cmp    $0x1,%eax
  40107e:	75 ca                	jne    40104a <.text+0x4a>
  401080:	c7 44 24 04 01 00 00 	movl   $0x1,0x4(%esp)
  401087:	00 
  401088:	c7 04 24 08 00 00 00 	movl   $0x8,(%esp)
  40108f:	e8 90 2d 00 00       	call   403e24 <_signal>
  401094:	ba ff ff ff ff       	mov    $0xffffffff,%edx
  401099:	eb b9                	jmp    401054 <.text+0x54>
  40109b:	8d 74 26 00          	lea    0x0(%esi,%eiz,1),%esi
  40109f:	90                   	nop
  4010a0:	3d 05 00 00 c0       	cmp    $0xc0000005,%eax
  4010a5:	75 ab                	jne    401052 <.text+0x52>
  4010a7:	c7 44 24 04 00 00 00 	movl   $0x0,0x4(%esp)
  4010ae:	00 
  4010af:	c7 04 24 0b 00 00 00 	movl   $0xb,(%esp)
  4010b6:	e8 69 2d 00 00       	call   403e24 <_signal>
  4010bb:	83 f8 01             	cmp    $0x1,%eax
  4010be:	0f 84 9f 00 00 00    	je     401163 <.text+0x163>
  4010c4:	85 c0                	test   %eax,%eax
  4010c6:	74 8a                	je     401052 <.text+0x52>
  4010c8:	c7 04 24 0b 00 00 00 	movl   $0xb,(%esp)
  4010cf:	ff d0                	call   *%eax
  4010d1:	ba ff ff ff ff       	mov    $0xffffffff,%edx
  4010d6:	e9 79 ff ff ff       	jmp    401054 <.text+0x54>
  4010db:	8d 74 26 00          	lea    0x0(%esi,%eiz,1),%esi
  4010df:	90                   	nop
  4010e0:	3d 96 00 00 c0       	cmp    $0xc0000096,%eax
  4010e5:	0f 85 67 ff ff ff    	jne    401052 <.text+0x52>
  4010eb:	c7 44 24 04 00 00 00 	movl   $0x0,0x4(%esp)
  4010f2:	00 
  4010f3:	c7 04 24 04 00 00 00 	movl   $0x4,(%esp)
  4010fa:	e8 25 2d 00 00       	call   403e24 <_signal>
  4010ff:	83 f8 01             	cmp    $0x1,%eax
  401102:	74 7b                	je     40117f <.text+0x17f>
  401104:	85 c0                	test   %eax,%eax
  401106:	0f 84 46 ff ff ff    	je     401052 <.text+0x52>
  40110c:	c7 04 24 04 00 00 00 	movl   $0x4,(%esp)
  401113:	ff d0                	call   *%eax
  401115:	ba ff ff ff ff       	mov    $0xffffffff,%edx
  40111a:	e9 35 ff ff ff       	jmp    401054 <.text+0x54>
  40111f:	90                   	nop
  401120:	c7 44 24 04 01 00 00 	movl   $0x1,0x4(%esp)
  401127:	00 
  401128:	c7 04 24 08 00 00 00 	movl   $0x8,(%esp)
  40112f:	e8 f0 2c 00 00       	call   403e24 <_signal>
  401134:	c7 04 24 00 00 00 00 	movl   $0x0,(%esp)
  40113b:	e8 30 0f 00 00       	call   402070 <_fesetenv>
  401140:	ba ff ff ff ff       	mov    $0xffffffff,%edx
  401145:	e9 0a ff ff ff       	jmp    401054 <.text+0x54>
  40114a:	8d b6 00 00 00 00    	lea    0x0(%esi),%esi
  401150:	c7 04 24 08 00 00 00 	movl   $0x8,(%esp)
  401157:	ff d0                	call   *%eax
  401159:	ba ff ff ff ff       	mov    $0xffffffff,%edx
  40115e:	e9 f1 fe ff ff       	jmp    401054 <.text+0x54>
  401163:	c7 44 24 04 01 00 00 	movl   $0x1,0x4(%esp)
  40116a:	00 
  40116b:	c7 04 24 0b 00 00 00 	movl   $0xb,(%esp)
  401172:	e8 ad 2c 00 00       	call   403e24 <_signal>
  401177:	83 ca ff             	or     $0xffffffff,%edx
  40117a:	e9 d5 fe ff ff       	jmp    401054 <.text+0x54>
  40117f:	c7 44 24 04 01 00 00 	movl   $0x1,0x4(%esp)
  401186:	00 
  401187:	c7 04 24 04 00 00 00 	movl   $0x4,(%esp)
  40118e:	e8 91 2c 00 00       	call   403e24 <_signal>
  401193:	83 ca ff             	or     $0xffffffff,%edx
  401196:	e9 b9 fe ff ff       	jmp    401054 <.text+0x54>
  40119b:	8d 74 26 00          	lea    0x0(%esi,%eiz,1),%esi
  40119f:	90                   	nop
  4011a0:	53                   	push   %ebx
  4011a1:	83 ec 18             	sub    $0x18,%esp
  4011a4:	a1 64 51 40 00       	mov    0x405164,%eax
  4011a9:	85 c0                	test   %eax,%eax
  4011ab:	74 1c                	je     4011c9 <.text+0x1c9>
  4011ad:	c7 44 24 08 00 00 00 	movl   $0x0,0x8(%esp)
  4011b4:	00 
  4011b5:	c7 44 24 04 02 00 00 	movl   $0x2,0x4(%esp)
  4011bc:	00 
  4011bd:	c7 04 24 00 00 00 00 	movl   $0x0,(%esp)
  4011c4:	ff d0                	call   *%eax
  4011c6:	83 ec 0c             	sub    $0xc,%esp
  4011c9:	c7 04 24 00 10 40 00 	movl   $0x401000,(%esp)
  4011d0:	e8 ff 2c 00 00       	call   403ed4 <_SetUnhandledExceptionFilter@4>
  4011d5:	83 ec 04             	sub    $0x4,%esp
  4011d8:	e8 53 06 00 00       	call   401830 <___cpu_features_init>
  4011dd:	a1 08 40 40 00       	mov    0x404008,%eax
  4011e2:	89 04 24             	mov    %eax,(%esp)
  4011e5:	e8 86 0e 00 00       	call   402070 <_fesetenv>
  4011ea:	e8 a1 02 00 00       	call   401490 <__setargv>
  4011ef:	a1 20 70 40 00       	mov    0x407020,%eax
  4011f4:	85 c0                	test   %eax,%eax
  4011f6:	75 4a                	jne    401242 <.text+0x242>
  4011f8:	e8 a7 2c 00 00       	call   403ea4 <___p__fmode>
  4011fd:	8b 15 0c 40 40 00    	mov    0x40400c,%edx
  401203:	89 10                	mov    %edx,(%eax)
  401205:	e8 76 0c 00 00       	call   401e80 <__pei386_runtime_relocator>
  40120a:	83 e4 f0             	and    $0xfffffff0,%esp
  40120d:	e8 ce 07 00 00       	call   4019e0 <___main>
  401212:	e8 95 2c 00 00       	call   403eac <___p__environ>
  401217:	8b 00                	mov    (%eax),%eax
  401219:	89 44 24 08          	mov    %eax,0x8(%esp)
  40121d:	a1 00 70 40 00       	mov    0x407000,%eax
  401222:	89 44 24 04          	mov    %eax,0x4(%esp)
  401226:	a1 04 70 40 00       	mov    0x407004,%eax
  40122b:	89 04 24             	mov    %eax,(%esp)
  40122e:	e8 1a 02 00 00       	call   40144d <_main>
  401233:	89 c3                	mov    %eax,%ebx
  401235:	e8 62 2c 00 00       	call   403e9c <__cexit>
  40123a:	89 1c 24             	mov    %ebx,(%esp)
  40123d:	e8 f2 2c 00 00       	call   403f34 <_ExitProcess@4>
  401242:	8b 1d ac 81 40 00    	mov    0x4081ac,%ebx
  401248:	89 44 24 04          	mov    %eax,0x4(%esp)
  40124c:	a3 0c 40 40 00       	mov    %eax,0x40400c
  401251:	8b 43 10             	mov    0x10(%ebx),%eax
  401254:	89 04 24             	mov    %eax,(%esp)
  401257:	e8 18 2c 00 00       	call   403e74 <__setmode>
  40125c:	a1 20 70 40 00       	mov    0x407020,%eax
  401261:	89 44 24 04          	mov    %eax,0x4(%esp)
  401265:	8b 43 30             	mov    0x30(%ebx),%eax
  401268:	89 04 24             	mov    %eax,(%esp)
  40126b:	e8 04 2c 00 00       	call   403e74 <__setmode>
  401270:	a1 20 70 40 00       	mov    0x407020,%eax
  401275:	89 44 24 04          	mov    %eax,0x4(%esp)
  401279:	8b 43 50             	mov    0x50(%ebx),%eax
  40127c:	89 04 24             	mov    %eax,(%esp)
  40127f:	e8 f0 2b 00 00       	call   403e74 <__setmode>
  401284:	e9 6f ff ff ff       	jmp    4011f8 <.text+0x1f8>
  401289:	8d b4 26 00 00 00 00 	lea    0x0(%esi,%eiz,1),%esi

00401290 <__mingw32_init_mainargs>:
  401290:	83 ec 3c             	sub    $0x3c,%esp
  401293:	8d 44 24 2c          	lea    0x2c(%esp),%eax
  401297:	c7 44 24 04 00 70 40 	movl   $0x407000,0x4(%esp)
  40129e:	00 
  40129f:	89 44 24 10          	mov    %eax,0x10(%esp)
  4012a3:	a1 04 40 40 00       	mov    0x404004,%eax
  4012a8:	c7 04 24 04 70 40 00 	movl   $0x407004,(%esp)
  4012af:	83 e0 01             	and    $0x1,%eax
  4012b2:	c7 44 24 2c 00 00 00 	movl   $0x0,0x2c(%esp)
  4012b9:	00 
  4012ba:	89 44 24 0c          	mov    %eax,0xc(%esp)
  4012be:	8d 44 24 28          	lea    0x28(%esp),%eax
  4012c2:	89 44 24 08          	mov    %eax,0x8(%esp)
  4012c6:	e8 e9 2b 00 00       	call   403eb4 <___getmainargs>
  4012cb:	83 c4 3c             	add    $0x3c,%esp
  4012ce:	c3                   	ret    
  4012cf:	90                   	nop

004012d0 <_mainCRTStartup>:
  4012d0:	83 ec 1c             	sub    $0x1c,%esp
  4012d3:	c7 04 24 01 00 00 00 	movl   $0x1,(%esp)
  4012da:	ff 15 98 81 40 00    	call   *0x408198
  4012e0:	e8 bb fe ff ff       	call   4011a0 <.text+0x1a0>
  4012e5:	8d b4 26 00 00 00 00 	lea    0x0(%esi,%eiz,1),%esi
  4012ec:	8d 74 26 00          	lea    0x0(%esi,%eiz,1),%esi

004012f0 <_WinMainCRTStartup>:
  4012f0:	83 ec 1c             	sub    $0x1c,%esp
  4012f3:	c7 04 24 02 00 00 00 	movl   $0x2,(%esp)
  4012fa:	ff 15 98 81 40 00    	call   *0x408198
  401300:	e8 9b fe ff ff       	call   4011a0 <.text+0x1a0>
  401305:	8d b4 26 00 00 00 00 	lea    0x0(%esi,%eiz,1),%esi
  40130c:	8d 74 26 00          	lea    0x0(%esi,%eiz,1),%esi

00401310 <_atexit>:
  401310:	ff 25 c8 81 40 00    	jmp    *0x4081c8
  401316:	8d b4 26 00 00 00 00 	lea    0x0(%esi,%eiz,1),%esi
  40131d:	8d 76 00             	lea    0x0(%esi),%esi

00401320 <__onexit>:
  401320:	ff 25 b8 81 40 00    	jmp    *0x4081b8
  401326:	90                   	nop
  401327:	90                   	nop
  401328:	90                   	nop
  401329:	90                   	nop
  40132a:	90                   	nop
  40132b:	90                   	nop
  40132c:	90                   	nop
  40132d:	90                   	nop
  40132e:	90                   	nop
  40132f:	90                   	nop

00401330 <___gcc_register_frame>:
  401330:	55                   	push   %ebp
  401331:	89 e5                	mov    %esp,%ebp
  401333:	56                   	push   %esi
  401334:	53                   	push   %ebx
  401335:	83 ec 10             	sub    $0x10,%esp
  401338:	c7 04 24 00 50 40 00 	movl   $0x405000,(%esp)
  40133f:	e8 b8 2b 00 00       	call   403efc <_GetModuleHandleA@4>
  401344:	83 ec 04             	sub    $0x4,%esp
  401347:	85 c0                	test   %eax,%eax
  401349:	74 75                	je     4013c0 <___gcc_register_frame+0x90>
  40134b:	c7 04 24 00 50 40 00 	movl   $0x405000,(%esp)
  401352:	89 c3                	mov    %eax,%ebx
  401354:	e8 83 2b 00 00       	call   403edc <_LoadLibraryA@4>
  401359:	83 ec 04             	sub    $0x4,%esp
  40135c:	a3 70 70 40 00       	mov    %eax,0x407070
  401361:	c7 44 24 04 13 50 40 	movl   $0x405013,0x4(%esp)
  401368:	00 
  401369:	89 1c 24             	mov    %ebx,(%esp)
  40136c:	e8 83 2b 00 00       	call   403ef4 <_GetProcAddress@8>
  401371:	83 ec 08             	sub    $0x8,%esp
  401374:	89 c6                	mov    %eax,%esi
  401376:	c7 44 24 04 29 50 40 	movl   $0x405029,0x4(%esp)
  40137d:	00 
  40137e:	89 1c 24             	mov    %ebx,(%esp)
  401381:	e8 6e 2b 00 00       	call   403ef4 <_GetProcAddress@8>
  401386:	a3 00 40 40 00       	mov    %eax,0x404000
  40138b:	83 ec 08             	sub    $0x8,%esp
  40138e:	85 f6                	test   %esi,%esi
  401390:	74 11                	je     4013a3 <___gcc_register_frame+0x73>
  401392:	c7 44 24 04 08 70 40 	movl   $0x407008,0x4(%esp)
  401399:	00 
  40139a:	c7 04 24 c8 60 40 00 	movl   $0x4060c8,(%esp)
  4013a1:	ff d6                	call   *%esi
  4013a3:	c7 04 24 e0 13 40 00 	movl   $0x4013e0,(%esp)
  4013aa:	e8 61 ff ff ff       	call   401310 <_atexit>
  4013af:	8d 65 f8             	lea    -0x8(%ebp),%esp
  4013b2:	5b                   	pop    %ebx
  4013b3:	5e                   	pop    %esi
  4013b4:	5d                   	pop    %ebp
  4013b5:	c3                   	ret    
  4013b6:	8d b4 26 00 00 00 00 	lea    0x0(%esi,%eiz,1),%esi
  4013bd:	8d 76 00             	lea    0x0(%esi),%esi
  4013c0:	c7 05 00 40 40 00 00 	movl   $0x0,0x404000
  4013c7:	00 00 00 
  4013ca:	be 00 00 00 00       	mov    $0x0,%esi
  4013cf:	eb bd                	jmp    40138e <___gcc_register_frame+0x5e>
  4013d1:	8d b4 26 00 00 00 00 	lea    0x0(%esi,%eiz,1),%esi
  4013d8:	8d b4 26 00 00 00 00 	lea    0x0(%esi,%eiz,1),%esi
  4013df:	90                   	nop

004013e0 <___gcc_deregister_frame>:
  4013e0:	55                   	push   %ebp
  4013e1:	89 e5                	mov    %esp,%ebp
  4013e3:	83 ec 18             	sub    $0x18,%esp
  4013e6:	a1 00 40 40 00       	mov    0x404000,%eax
  4013eb:	85 c0                	test   %eax,%eax
  4013ed:	74 09                	je     4013f8 <___gcc_deregister_frame+0x18>
  4013ef:	c7 04 24 c8 60 40 00 	movl   $0x4060c8,(%esp)
  4013f6:	ff d0                	call   *%eax
  4013f8:	a1 70 70 40 00       	mov    0x407070,%eax
  4013fd:	85 c0                	test   %eax,%eax
  4013ff:	74 0b                	je     40140c <___gcc_deregister_frame+0x2c>
  401401:	89 04 24             	mov    %eax,(%esp)
  401404:	e8 0b 2b 00 00       	call   403f14 <_FreeLibrary@4>
  401409:	83 ec 04             	sub    $0x4,%esp
  40140c:	c9                   	leave  
  40140d:	c3                   	ret    
  40140e:	90                   	nop
  40140f:	90                   	nop

00401410 <_bar>:
  401410:	55                   	push   %ebp
  401411:	89 e5                	mov    %esp,%ebp
  401413:	83 ec 18             	sub    $0x18,%esp
  401416:	8b 45 08             	mov    0x8(%ebp),%eax
  401419:	89 44 24 04          	mov    %eax,0x4(%esp)
  40141d:	c7 04 24 44 50 40 00 	movl   $0x405044,(%esp)
  401424:	e8 0b 2a 00 00       	call   403e34 <_printf>
  401429:	90                   	nop
  40142a:	c9                   	leave  
  40142b:	c3                   	ret    

0040142c <_foo>:
  40142c:	55                   	push   %ebp
  40142d:	89 e5                	mov    %esp,%ebp
  40142f:	83 ec 28             	sub    $0x28,%esp
  401432:	8b 55 08             	mov    0x8(%ebp),%edx
  401435:	8b 45 0c             	mov    0xc(%ebp),%eax
  401438:	01 d0                	add    %edx,%eax
  40143a:	89 45 f4             	mov    %eax,-0xc(%ebp)
  40143d:	8b 45 f4             	mov    -0xc(%ebp),%eax
  401440:	89 04 24             	mov    %eax,(%esp)
  401443:	e8 c8 ff ff ff       	call   401410 <_bar>
  401448:	8b 45 f4             	mov    -0xc(%ebp),%eax
  40144b:	c9                   	leave  
  40144c:	c3                   	ret    

0040144d <_main>:
  40144d:	55                   	push   %ebp
  40144e:	89 e5                	mov    %esp,%ebp
  401450:	83 e4 f0             	and    $0xfffffff0,%esp
  401453:	83 ec 20             	sub    $0x20,%esp
  401456:	e8 85 05 00 00       	call   4019e0 <___main>
  40145b:	c7 44 24 04 02 00 00 	movl   $0x2,0x4(%esp)
  401462:	00 
  401463:	c7 04 24 01 00 00 00 	movl   $0x1,(%esp)
  40146a:	e8 bd ff ff ff       	call   40142c <_foo>
  40146f:	89 44 24 1c          	mov    %eax,0x1c(%esp)
  401473:	8b 44 24 1c          	mov    0x1c(%esp),%eax
  401477:	89 44 24 04          	mov    %eax,0x4(%esp)
  40147b:	c7 04 24 4e 50 40 00 	movl   $0x40504e,(%esp)
  401482:	e8 ad 29 00 00       	call   403e34 <_printf>
  401487:	b8 00 00 00 00       	mov    $0x0,%eax
  40148c:	c9                   	leave  
  40148d:	c3                   	ret    
  40148e:	90                   	nop
  40148f:	90                   	nop

00401490 <__setargv>:
  401490:	55                   	push   %ebp
  401491:	89 e5                	mov    %esp,%ebp
  401493:	57                   	push   %edi
  401494:	56                   	push   %esi
  401495:	53                   	push   %ebx
  401496:	83 ec 4c             	sub    $0x4c,%esp
  401499:	f6 05 04 40 40 00 02 	testb  $0x2,0x404004
  4014a0:	75 0e                	jne    4014b0 <__setargv+0x20>
  4014a2:	e8 e9 fd ff ff       	call   401290 <__mingw32_init_mainargs>
  4014a7:	8d 65 f4             	lea    -0xc(%ebp),%esp
  4014aa:	5b                   	pop    %ebx
  4014ab:	5e                   	pop    %esi
  4014ac:	5f                   	pop    %edi
  4014ad:	5d                   	pop    %ebp
  4014ae:	c3                   	ret    
  4014af:	90                   	nop
  4014b0:	e8 57 2a 00 00       	call   403f0c <_GetCommandLineA@0>
  4014b5:	89 65 c0             	mov    %esp,-0x40(%ebp)
  4014b8:	89 04 24             	mov    %eax,(%esp)
  4014bb:	89 c3                	mov    %eax,%ebx
  4014bd:	e8 52 29 00 00       	call   403e14 <_strlen>
  4014c2:	8d 44 00 11          	lea    0x11(%eax,%eax,1),%eax
  4014c6:	c1 e8 04             	shr    $0x4,%eax
  4014c9:	c1 e0 04             	shl    $0x4,%eax
  4014cc:	e8 ef 28 00 00       	call   403dc0 <___chkstk_ms>
  4014d1:	29 c4                	sub    %eax,%esp
  4014d3:	a1 04 40 40 00       	mov    0x404004,%eax
  4014d8:	c7 45 e4 00 00 00 00 	movl   $0x0,-0x1c(%ebp)
  4014df:	0f be 3b             	movsbl (%ebx),%edi
  4014e2:	8d 74 24 10          	lea    0x10(%esp),%esi
  4014e6:	25 00 44 00 00       	and    $0x4400,%eax
  4014eb:	89 75 c8             	mov    %esi,-0x38(%ebp)
  4014ee:	83 c8 10             	or     $0x10,%eax
  4014f1:	89 45 c4             	mov    %eax,-0x3c(%ebp)
  4014f4:	8d 43 01             	lea    0x1(%ebx),%eax
  4014f7:	89 fb                	mov    %edi,%ebx
  4014f9:	89 45 d4             	mov    %eax,-0x2c(%ebp)
  4014fc:	85 ff                	test   %edi,%edi
  4014fe:	0f 84 cc 00 00 00    	je     4015d0 <__setargv+0x140>
  401504:	c7 45 cc 00 00 00 00 	movl   $0x0,-0x34(%ebp)
  40150b:	89 f0                	mov    %esi,%eax
  40150d:	31 d2                	xor    %edx,%edx
  40150f:	c7 45 d0 00 00 00 00 	movl   $0x0,-0x30(%ebp)
  401516:	8d b4 26 00 00 00 00 	lea    0x0(%esi,%eiz,1),%esi
  40151d:	8d 76 00             	lea    0x0(%esi),%esi
  401520:	80 fb 3f             	cmp    $0x3f,%bl
  401523:	0f 8f 57 02 00 00    	jg     401780 <__setargv+0x2f0>
  401529:	80 fb 21             	cmp    $0x21,%bl
  40152c:	0f 8f 5e 01 00 00    	jg     401690 <__setargv+0x200>
  401532:	8d 34 10             	lea    (%eax,%edx,1),%esi
  401535:	85 d2                	test   %edx,%edx
  401537:	0f 84 d2 02 00 00    	je     40180f <__setargv+0x37f>
  40153d:	8d 76 00             	lea    0x0(%esi),%esi
  401540:	83 c0 01             	add    $0x1,%eax
  401543:	c6 40 ff 5c          	movb   $0x5c,-0x1(%eax)
  401547:	39 f0                	cmp    %esi,%eax
  401549:	75 f5                	jne    401540 <__setargv+0xb0>
  40154b:	8b 4d d0             	mov    -0x30(%ebp),%ecx
  40154e:	85 c9                	test   %ecx,%ecx
  401550:	0f 85 c2 00 00 00    	jne    401618 <__setargv+0x188>
  401556:	a1 8c 81 40 00       	mov    0x40818c,%eax
  40155b:	83 38 01             	cmpl   $0x1,(%eax)
  40155e:	0f 85 8c 00 00 00    	jne    4015f0 <__setargv+0x160>
  401564:	a1 bc 81 40 00       	mov    0x4081bc,%eax
  401569:	8b 00                	mov    (%eax),%eax
  40156b:	f6 04 78 40          	testb  $0x40,(%eax,%edi,2)
  40156f:	0f 84 93 00 00 00    	je     401608 <__setargv+0x178>
  401575:	39 75 c8             	cmp    %esi,-0x38(%ebp)
  401578:	0f 82 d2 00 00 00    	jb     401650 <__setargv+0x1c0>
  40157e:	8b 55 cc             	mov    -0x34(%ebp),%edx
  401581:	85 d2                	test   %edx,%edx
  401583:	0f 85 c7 00 00 00    	jne    401650 <__setargv+0x1c0>
  401589:	c7 45 cc 00 00 00 00 	movl   $0x0,-0x34(%ebp)
  401590:	89 f0                	mov    %esi,%eax
  401592:	31 d2                	xor    %edx,%edx
  401594:	e9 86 00 00 00       	jmp    40161f <__setargv+0x18f>
  401599:	89 c2                	mov    %eax,%edx
  40159b:	8d 74 26 00          	lea    0x0(%esi,%eiz,1),%esi
  40159f:	90                   	nop
  4015a0:	39 55 c8             	cmp    %edx,-0x38(%ebp)
  4015a3:	72 07                	jb     4015ac <__setargv+0x11c>
  4015a5:	8b 45 cc             	mov    -0x34(%ebp),%eax
  4015a8:	85 c0                	test   %eax,%eax
  4015aa:	74 24                	je     4015d0 <__setargv+0x140>
  4015ac:	8d 45 d8             	lea    -0x28(%ebp),%eax
  4015af:	c6 02 00             	movb   $0x0,(%edx)
  4015b2:	89 44 24 0c          	mov    %eax,0xc(%esp)
  4015b6:	c7 44 24 08 00 00 00 	movl   $0x0,0x8(%esp)
  4015bd:	00 
  4015be:	8b 45 c4             	mov    -0x3c(%ebp),%eax
  4015c1:	89 44 24 04          	mov    %eax,0x4(%esp)
  4015c5:	8b 45 c8             	mov    -0x38(%ebp),%eax
  4015c8:	89 04 24             	mov    %eax,(%esp)
  4015cb:	e8 f0 1a 00 00       	call   4030c0 <___mingw_glob>
  4015d0:	8b 45 dc             	mov    -0x24(%ebp),%eax
  4015d3:	a3 04 70 40 00       	mov    %eax,0x407004
  4015d8:	8b 45 e0             	mov    -0x20(%ebp),%eax
  4015db:	a3 00 70 40 00       	mov    %eax,0x407000
  4015e0:	8b 65 c0             	mov    -0x40(%ebp),%esp
  4015e3:	8d 65 f4             	lea    -0xc(%ebp),%esp
  4015e6:	5b                   	pop    %ebx
  4015e7:	5e                   	pop    %esi
  4015e8:	5f                   	pop    %edi
  4015e9:	5d                   	pop    %ebp
  4015ea:	c3                   	ret    
  4015eb:	8d 74 26 00          	lea    0x0(%esi,%eiz,1),%esi
  4015ef:	90                   	nop
  4015f0:	c7 44 24 04 40 00 00 	movl   $0x40,0x4(%esp)
  4015f7:	00 
  4015f8:	89 3c 24             	mov    %edi,(%esp)
  4015fb:	e8 84 28 00 00       	call   403e84 <__isctype>
  401600:	85 c0                	test   %eax,%eax
  401602:	0f 85 6d ff ff ff    	jne    401575 <__setargv+0xe5>
  401608:	83 ff 09             	cmp    $0x9,%edi
  40160b:	0f 84 64 ff ff ff    	je     401575 <__setargv+0xe5>
  401611:	8d b4 26 00 00 00 00 	lea    0x0(%esi,%eiz,1),%esi
  401618:	88 1e                	mov    %bl,(%esi)
  40161a:	8d 46 01             	lea    0x1(%esi),%eax
  40161d:	31 d2                	xor    %edx,%edx
  40161f:	83 45 d4 01          	addl   $0x1,-0x2c(%ebp)
  401623:	8b 7d d4             	mov    -0x2c(%ebp),%edi
  401626:	0f be 7f ff          	movsbl -0x1(%edi),%edi
  40162a:	89 fb                	mov    %edi,%ebx
  40162c:	85 ff                	test   %edi,%edi
  40162e:	0f 85 ec fe ff ff    	jne    401520 <__setargv+0x90>
  401634:	85 d2                	test   %edx,%edx
  401636:	0f 84 5d ff ff ff    	je     401599 <__setargv+0x109>
  40163c:	01 c2                	add    %eax,%edx
  40163e:	66 90                	xchg   %ax,%ax
  401640:	83 c0 01             	add    $0x1,%eax
  401643:	c6 40 ff 5c          	movb   $0x5c,-0x1(%eax)
  401647:	39 d0                	cmp    %edx,%eax
  401649:	75 f5                	jne    401640 <__setargv+0x1b0>
  40164b:	e9 50 ff ff ff       	jmp    4015a0 <__setargv+0x110>
  401650:	8d 45 d8             	lea    -0x28(%ebp),%eax
  401653:	c6 06 00             	movb   $0x0,(%esi)
  401656:	89 44 24 0c          	mov    %eax,0xc(%esp)
  40165a:	c7 44 24 08 00 00 00 	movl   $0x0,0x8(%esp)
  401661:	00 
  401662:	8b 75 c4             	mov    -0x3c(%ebp),%esi
  401665:	89 74 24 04          	mov    %esi,0x4(%esp)
  401669:	8b 7d c8             	mov    -0x38(%ebp),%edi
  40166c:	83 ce 01             	or     $0x1,%esi
  40166f:	89 3c 24             	mov    %edi,(%esp)
  401672:	e8 49 1a 00 00       	call   4030c0 <___mingw_glob>
  401677:	89 75 c4             	mov    %esi,-0x3c(%ebp)
  40167a:	89 f8                	mov    %edi,%eax
  40167c:	31 d2                	xor    %edx,%edx
  40167e:	c7 45 cc 00 00 00 00 	movl   $0x0,-0x34(%ebp)
  401685:	eb 98                	jmp    40161f <__setargv+0x18f>
  401687:	8d b4 26 00 00 00 00 	lea    0x0(%esi,%eiz,1),%esi
  40168e:	66 90                	xchg   %ax,%ax
  401690:	8d 4b de             	lea    -0x22(%ebx),%ecx
  401693:	80 f9 1d             	cmp    $0x1d,%cl
  401696:	0f 87 96 fe ff ff    	ja     401532 <__setargv+0xa2>
  40169c:	0f b6 c9             	movzbl %cl,%ecx
  40169f:	ff 24 8d 58 50 40 00 	jmp    *0x405058(,%ecx,4)
  4016a6:	8d 72 ff             	lea    -0x1(%edx),%esi
  4016a9:	83 ff 7f             	cmp    $0x7f,%edi
  4016ac:	0f 94 c1             	sete   %cl
  4016af:	89 cf                	mov    %ecx,%edi
  4016b1:	8b 4d d0             	mov    -0x30(%ebp),%ecx
  4016b4:	85 c9                	test   %ecx,%ecx
  4016b6:	0f 95 c1             	setne  %cl
  4016b9:	09 f9                	or     %edi,%ecx
  4016bb:	85 d2                	test   %edx,%edx
  4016bd:	0f 84 53 01 00 00    	je     401816 <__setargv+0x386>
  4016c3:	8d 54 30 01          	lea    0x1(%eax,%esi,1),%edx
  4016c7:	8d b4 26 00 00 00 00 	lea    0x0(%esi,%eiz,1),%esi
  4016ce:	66 90                	xchg   %ax,%ax
  4016d0:	83 c0 01             	add    $0x1,%eax
  4016d3:	c6 40 ff 5c          	movb   $0x5c,-0x1(%eax)
  4016d7:	39 d0                	cmp    %edx,%eax
  4016d9:	75 f5                	jne    4016d0 <__setargv+0x240>
  4016db:	89 d6                	mov    %edx,%esi
  4016dd:	84 c9                	test   %cl,%cl
  4016df:	0f 84 33 ff ff ff    	je     401618 <__setargv+0x188>
  4016e5:	c6 02 7f             	movb   $0x7f,(%edx)
  4016e8:	8d 72 01             	lea    0x1(%edx),%esi
  4016eb:	e9 28 ff ff ff       	jmp    401618 <__setargv+0x188>
  4016f0:	f6 05 04 40 40 00 10 	testb  $0x10,0x404004
  4016f7:	0f 84 35 fe ff ff    	je     401532 <__setargv+0xa2>
  4016fd:	89 d1                	mov    %edx,%ecx
  4016ff:	d1 f9                	sar    %ecx
  401701:	0f 84 1d 01 00 00    	je     401824 <__setargv+0x394>
  401707:	01 c1                	add    %eax,%ecx
  401709:	8d b4 26 00 00 00 00 	lea    0x0(%esi,%eiz,1),%esi
  401710:	83 c0 01             	add    $0x1,%eax
  401713:	c6 40 ff 5c          	movb   $0x5c,-0x1(%eax)
  401717:	39 c8                	cmp    %ecx,%eax
  401719:	75 f5                	jne    401710 <__setargv+0x280>
  40171b:	83 7d d0 22          	cmpl   $0x22,-0x30(%ebp)
  40171f:	74 09                	je     40172a <__setargv+0x29a>
  401721:	83 e2 01             	and    $0x1,%edx
  401724:	0f 84 d1 00 00 00    	je     4017fb <__setargv+0x36b>
  40172a:	c6 01 27             	movb   $0x27,(%ecx)
  40172d:	8d 41 01             	lea    0x1(%ecx),%eax
  401730:	31 d2                	xor    %edx,%edx
  401732:	c7 45 cc 01 00 00 00 	movl   $0x1,-0x34(%ebp)
  401739:	e9 e1 fe ff ff       	jmp    40161f <__setargv+0x18f>
  40173e:	89 d1                	mov    %edx,%ecx
  401740:	d1 f9                	sar    %ecx
  401742:	0f 84 d5 00 00 00    	je     40181d <__setargv+0x38d>
  401748:	01 c1                	add    %eax,%ecx
  40174a:	8d b6 00 00 00 00    	lea    0x0(%esi),%esi
  401750:	83 c0 01             	add    $0x1,%eax
  401753:	c6 40 ff 5c          	movb   $0x5c,-0x1(%eax)
  401757:	39 c8                	cmp    %ecx,%eax
  401759:	75 f5                	jne    401750 <__setargv+0x2c0>
  40175b:	83 7d d0 27          	cmpl   $0x27,-0x30(%ebp)
  40175f:	74 77                	je     4017d8 <__setargv+0x348>
  401761:	83 e2 01             	and    $0x1,%edx
  401764:	75 72                	jne    4017d8 <__setargv+0x348>
  401766:	83 75 d0 22          	xorl   $0x22,-0x30(%ebp)
  40176a:	89 c8                	mov    %ecx,%eax
  40176c:	31 d2                	xor    %edx,%edx
  40176e:	c7 45 cc 01 00 00 00 	movl   $0x1,-0x34(%ebp)
  401775:	e9 a5 fe ff ff       	jmp    40161f <__setargv+0x18f>
  40177a:	8d b6 00 00 00 00    	lea    0x0(%esi),%esi
  401780:	80 fb 5a             	cmp    $0x5a,%bl
  401783:	0f 8e a9 fd ff ff    	jle    401532 <__setargv+0xa2>
  401789:	8d 4b a5             	lea    -0x5b(%ebx),%ecx
  40178c:	80 f9 24             	cmp    $0x24,%cl
  40178f:	0f 87 9d fd ff ff    	ja     401532 <__setargv+0xa2>
  401795:	0f b6 c9             	movzbl %cl,%ecx
  401798:	ff 24 8d d0 50 40 00 	jmp    *0x4050d0(,%ecx,4)
  40179f:	83 7d d0 27          	cmpl   $0x27,-0x30(%ebp)
  4017a3:	74 4b                	je     4017f0 <__setargv+0x360>
  4017a5:	83 c2 01             	add    $0x1,%edx
  4017a8:	e9 72 fe ff ff       	jmp    40161f <__setargv+0x18f>
  4017ad:	8d 72 ff             	lea    -0x1(%edx),%esi
  4017b0:	f6 05 04 40 40 00 20 	testb  $0x20,0x404004
  4017b7:	0f 85 ec fe ff ff    	jne    4016a9 <__setargv+0x219>
  4017bd:	b9 01 00 00 00       	mov    $0x1,%ecx
  4017c2:	85 d2                	test   %edx,%edx
  4017c4:	0f 85 f9 fe ff ff    	jne    4016c3 <__setargv+0x233>
  4017ca:	89 c2                	mov    %eax,%edx
  4017cc:	e9 14 ff ff ff       	jmp    4016e5 <__setargv+0x255>
  4017d1:	8d b4 26 00 00 00 00 	lea    0x0(%esi,%eiz,1),%esi
  4017d8:	c6 01 22             	movb   $0x22,(%ecx)
  4017db:	8d 41 01             	lea    0x1(%ecx),%eax
  4017de:	31 d2                	xor    %edx,%edx
  4017e0:	c7 45 cc 01 00 00 00 	movl   $0x1,-0x34(%ebp)
  4017e7:	e9 33 fe ff ff       	jmp    40161f <__setargv+0x18f>
  4017ec:	8d 74 26 00          	lea    0x0(%esi,%eiz,1),%esi
  4017f0:	c6 00 5c             	movb   $0x5c,(%eax)
  4017f3:	83 c0 01             	add    $0x1,%eax
  4017f6:	e9 24 fe ff ff       	jmp    40161f <__setargv+0x18f>
  4017fb:	83 75 d0 27          	xorl   $0x27,-0x30(%ebp)
  4017ff:	89 c8                	mov    %ecx,%eax
  401801:	31 d2                	xor    %edx,%edx
  401803:	c7 45 cc 01 00 00 00 	movl   $0x1,-0x34(%ebp)
  40180a:	e9 10 fe ff ff       	jmp    40161f <__setargv+0x18f>
  40180f:	89 c6                	mov    %eax,%esi
  401811:	e9 35 fd ff ff       	jmp    40154b <__setargv+0xbb>
  401816:	89 c2                	mov    %eax,%edx
  401818:	e9 be fe ff ff       	jmp    4016db <__setargv+0x24b>
  40181d:	89 c1                	mov    %eax,%ecx
  40181f:	e9 37 ff ff ff       	jmp    40175b <__setargv+0x2cb>
  401824:	89 c1                	mov    %eax,%ecx
  401826:	e9 f0 fe ff ff       	jmp    40171b <__setargv+0x28b>
  40182b:	90                   	nop
  40182c:	90                   	nop
  40182d:	90                   	nop
  40182e:	90                   	nop
  40182f:	90                   	nop

00401830 <___cpu_features_init>:
  401830:	9c                   	pushf  
  401831:	9c                   	pushf  
  401832:	58                   	pop    %eax
  401833:	89 c2                	mov    %eax,%edx
  401835:	35 00 00 20 00       	xor    $0x200000,%eax
  40183a:	50                   	push   %eax
  40183b:	9d                   	popf   
  40183c:	9c                   	pushf  
  40183d:	58                   	pop    %eax
  40183e:	9d                   	popf   
  40183f:	31 d0                	xor    %edx,%eax
  401841:	a9 00 00 20 00       	test   $0x200000,%eax
  401846:	0f 84 e9 00 00 00    	je     401935 <___cpu_features_init+0x105>
  40184c:	53                   	push   %ebx
  40184d:	31 c0                	xor    %eax,%eax
  40184f:	0f a2                	cpuid  
  401851:	85 c0                	test   %eax,%eax
  401853:	0f 84 db 00 00 00    	je     401934 <___cpu_features_init+0x104>
  401859:	b8 01 00 00 00       	mov    $0x1,%eax
  40185e:	0f a2                	cpuid  
  401860:	31 c0                	xor    %eax,%eax
  401862:	f6 c6 01             	test   $0x1,%dh
  401865:	74 03                	je     40186a <___cpu_features_init+0x3a>
  401867:	83 c8 01             	or     $0x1,%eax
  40186a:	f6 c5 20             	test   $0x20,%ch
  40186d:	74 05                	je     401874 <___cpu_features_init+0x44>
  40186f:	0d 80 00 00 00       	or     $0x80,%eax
  401874:	f6 c6 80             	test   $0x80,%dh
  401877:	74 03                	je     40187c <___cpu_features_init+0x4c>
  401879:	83 c8 02             	or     $0x2,%eax
  40187c:	f7 c2 00 00 80 00    	test   $0x800000,%edx
  401882:	74 03                	je     401887 <___cpu_features_init+0x57>
  401884:	83 c8 04             	or     $0x4,%eax
  401887:	f7 c2 00 00 00 01    	test   $0x1000000,%edx
  40188d:	74 6d                	je     4018fc <___cpu_features_init+0xcc>
  40188f:	83 c8 08             	or     $0x8,%eax
  401892:	55                   	push   %ebp
  401893:	89 e5                	mov    %esp,%ebp
  401895:	81 ec 00 02 00 00    	sub    $0x200,%esp
  40189b:	83 e4 f0             	and    $0xfffffff0,%esp
  40189e:	0f ae 04 24          	fxsave (%esp)
  4018a2:	8b 9c 24 c8 00 00 00 	mov    0xc8(%esp),%ebx
  4018a9:	81 b4 24 c8 00 00 00 	xorl   $0x13c0de,0xc8(%esp)
  4018b0:	de c0 13 00 
  4018b4:	0f ae 0c 24          	fxrstor (%esp)
  4018b8:	89 9c 24 c8 00 00 00 	mov    %ebx,0xc8(%esp)
  4018bf:	0f ae 04 24          	fxsave (%esp)
  4018c3:	87 9c 24 c8 00 00 00 	xchg   %ebx,0xc8(%esp)
  4018ca:	0f ae 0c 24          	fxrstor (%esp)
  4018ce:	33 9c 24 c8 00 00 00 	xor    0xc8(%esp),%ebx
  4018d5:	c9                   	leave  
  4018d6:	81 fb de c0 13 00    	cmp    $0x13c0de,%ebx
  4018dc:	75 1e                	jne    4018fc <___cpu_features_init+0xcc>
  4018de:	f7 c2 00 00 00 02    	test   $0x2000000,%edx
  4018e4:	74 03                	je     4018e9 <___cpu_features_init+0xb9>
  4018e6:	83 c8 10             	or     $0x10,%eax
  4018e9:	f7 c2 00 00 00 04    	test   $0x4000000,%edx
  4018ef:	74 03                	je     4018f4 <___cpu_features_init+0xc4>
  4018f1:	83 c8 20             	or     $0x20,%eax
  4018f4:	f6 c1 01             	test   $0x1,%cl
  4018f7:	74 03                	je     4018fc <___cpu_features_init+0xcc>
  4018f9:	83 c8 40             	or     $0x40,%eax
  4018fc:	a3 24 70 40 00       	mov    %eax,0x407024
  401901:	b8 00 00 00 80       	mov    $0x80000000,%eax
  401906:	0f a2                	cpuid  
  401908:	3d 00 00 00 80       	cmp    $0x80000000,%eax
  40190d:	76 25                	jbe    401934 <___cpu_features_init+0x104>
  40190f:	b8 01 00 00 80       	mov    $0x80000001,%eax
  401914:	0f a2                	cpuid  
  401916:	31 c0                	xor    %eax,%eax
  401918:	85 d2                	test   %edx,%edx
  40191a:	79 05                	jns    401921 <___cpu_features_init+0xf1>
  40191c:	b8 00 01 00 00       	mov    $0x100,%eax
  401921:	f7 c2 00 00 00 40    	test   $0x40000000,%edx
  401927:	74 05                	je     40192e <___cpu_features_init+0xfe>
  401929:	0d 00 02 00 00       	or     $0x200,%eax
  40192e:	09 05 24 70 40 00    	or     %eax,0x407024
  401934:	5b                   	pop    %ebx
  401935:	f3 c3                	repz ret 
  401937:	90                   	nop
  401938:	90                   	nop
  401939:	90                   	nop
  40193a:	90                   	nop
  40193b:	90                   	nop
  40193c:	90                   	nop
  40193d:	90                   	nop
  40193e:	90                   	nop
  40193f:	90                   	nop

00401940 <___do_global_dtors>:
  401940:	a1 10 40 40 00       	mov    0x404010,%eax
  401945:	8b 00                	mov    (%eax),%eax
  401947:	85 c0                	test   %eax,%eax
  401949:	74 25                	je     401970 <___do_global_dtors+0x30>
  40194b:	83 ec 0c             	sub    $0xc,%esp
  40194e:	66 90                	xchg   %ax,%ax
  401950:	ff d0                	call   *%eax
  401952:	a1 10 40 40 00       	mov    0x404010,%eax
  401957:	8d 50 04             	lea    0x4(%eax),%edx
  40195a:	8b 40 04             	mov    0x4(%eax),%eax
  40195d:	89 15 10 40 40 00    	mov    %edx,0x404010
  401963:	85 c0                	test   %eax,%eax
  401965:	75 e9                	jne    401950 <___do_global_dtors+0x10>
  401967:	83 c4 0c             	add    $0xc,%esp
  40196a:	c3                   	ret    
  40196b:	8d 74 26 00          	lea    0x0(%esi,%eiz,1),%esi
  40196f:	90                   	nop
  401970:	c3                   	ret    
  401971:	8d b4 26 00 00 00 00 	lea    0x0(%esi,%eiz,1),%esi
  401978:	8d b4 26 00 00 00 00 	lea    0x0(%esi,%eiz,1),%esi
  40197f:	90                   	nop

00401980 <___do_global_ctors>:
  401980:	53                   	push   %ebx
  401981:	83 ec 18             	sub    $0x18,%esp
  401984:	8b 1d 60 3f 40 00    	mov    0x403f60,%ebx
  40198a:	83 fb ff             	cmp    $0xffffffff,%ebx
  40198d:	74 29                	je     4019b8 <___do_global_ctors+0x38>
  40198f:	85 db                	test   %ebx,%ebx
  401991:	74 11                	je     4019a4 <___do_global_ctors+0x24>
  401993:	8d 74 26 00          	lea    0x0(%esi,%eiz,1),%esi
  401997:	90                   	nop
  401998:	ff 14 9d 60 3f 40 00 	call   *0x403f60(,%ebx,4)
  40199f:	83 eb 01             	sub    $0x1,%ebx
  4019a2:	75 f4                	jne    401998 <___do_global_ctors+0x18>
  4019a4:	c7 04 24 40 19 40 00 	movl   $0x401940,(%esp)
  4019ab:	e8 60 f9 ff ff       	call   401310 <_atexit>
  4019b0:	83 c4 18             	add    $0x18,%esp
  4019b3:	5b                   	pop    %ebx
  4019b4:	c3                   	ret    
  4019b5:	8d 76 00             	lea    0x0(%esi),%esi
  4019b8:	31 c0                	xor    %eax,%eax
  4019ba:	8d b6 00 00 00 00    	lea    0x0(%esi),%esi
  4019c0:	89 c3                	mov    %eax,%ebx
  4019c2:	83 c0 01             	add    $0x1,%eax
  4019c5:	8b 14 85 60 3f 40 00 	mov    0x403f60(,%eax,4),%edx
  4019cc:	85 d2                	test   %edx,%edx
  4019ce:	75 f0                	jne    4019c0 <___do_global_ctors+0x40>
  4019d0:	eb bd                	jmp    40198f <___do_global_ctors+0xf>
  4019d2:	8d b4 26 00 00 00 00 	lea    0x0(%esi,%eiz,1),%esi
  4019d9:	8d b4 26 00 00 00 00 	lea    0x0(%esi,%eiz,1),%esi

004019e0 <___main>:
  4019e0:	a1 28 70 40 00       	mov    0x407028,%eax
  4019e5:	85 c0                	test   %eax,%eax
  4019e7:	74 07                	je     4019f0 <___main+0x10>
  4019e9:	c3                   	ret    
  4019ea:	8d b6 00 00 00 00    	lea    0x0(%esi),%esi
  4019f0:	c7 05 28 70 40 00 01 	movl   $0x1,0x407028
  4019f7:	00 00 00 
  4019fa:	eb 84                	jmp    401980 <___do_global_ctors>
  4019fc:	90                   	nop
  4019fd:	90                   	nop
  4019fe:	90                   	nop
  4019ff:	90                   	nop

00401a00 <.text>:
  401a00:	83 ec 1c             	sub    $0x1c,%esp
  401a03:	8b 44 24 24          	mov    0x24(%esp),%eax
  401a07:	83 f8 03             	cmp    $0x3,%eax
  401a0a:	74 14                	je     401a20 <.text+0x20>
  401a0c:	85 c0                	test   %eax,%eax
  401a0e:	74 10                	je     401a20 <.text+0x20>
  401a10:	b8 01 00 00 00       	mov    $0x1,%eax
  401a15:	83 c4 1c             	add    $0x1c,%esp
  401a18:	c2 0c 00             	ret    $0xc
  401a1b:	8d 74 26 00          	lea    0x0(%esi,%eiz,1),%esi
  401a1f:	90                   	nop
  401a20:	89 44 24 04          	mov    %eax,0x4(%esp)
  401a24:	8b 54 24 28          	mov    0x28(%esp),%edx
  401a28:	8b 44 24 20          	mov    0x20(%esp),%eax
  401a2c:	89 54 24 08          	mov    %edx,0x8(%esp)
  401a30:	89 04 24             	mov    %eax,(%esp)
  401a33:	e8 48 02 00 00       	call   401c80 <___mingw_TLScallback>
  401a38:	b8 01 00 00 00       	mov    $0x1,%eax
  401a3d:	83 c4 1c             	add    $0x1c,%esp
  401a40:	c2 0c 00             	ret    $0xc
  401a43:	8d b4 26 00 00 00 00 	lea    0x0(%esi,%eiz,1),%esi
  401a4a:	8d b6 00 00 00 00    	lea    0x0(%esi),%esi

00401a50 <___dyn_tls_init@12>:
  401a50:	56                   	push   %esi
  401a51:	53                   	push   %ebx
  401a52:	83 ec 14             	sub    $0x14,%esp
  401a55:	83 3d 64 70 40 00 02 	cmpl   $0x2,0x407064
  401a5c:	8b 44 24 24          	mov    0x24(%esp),%eax
  401a60:	74 0a                	je     401a6c <___dyn_tls_init@12+0x1c>
  401a62:	c7 05 64 70 40 00 02 	movl   $0x2,0x407064
  401a69:	00 00 00 
  401a6c:	83 f8 02             	cmp    $0x2,%eax
  401a6f:	74 17                	je     401a88 <___dyn_tls_init@12+0x38>
  401a71:	83 f8 01             	cmp    $0x1,%eax
  401a74:	74 52                	je     401ac8 <___dyn_tls_init@12+0x78>
  401a76:	83 c4 14             	add    $0x14,%esp
  401a79:	b8 01 00 00 00       	mov    $0x1,%eax
  401a7e:	5b                   	pop    %ebx
  401a7f:	5e                   	pop    %esi
  401a80:	c2 0c 00             	ret    $0xc
  401a83:	8d 74 26 00          	lea    0x0(%esi,%eiz,1),%esi
  401a87:	90                   	nop
  401a88:	b8 14 90 40 00       	mov    $0x409014,%eax
  401a8d:	2d 14 90 40 00       	sub    $0x409014,%eax
  401a92:	89 c6                	mov    %eax,%esi
  401a94:	c1 fe 02             	sar    $0x2,%esi
  401a97:	85 c0                	test   %eax,%eax
  401a99:	7e db                	jle    401a76 <___dyn_tls_init@12+0x26>
  401a9b:	31 db                	xor    %ebx,%ebx
  401a9d:	8d 76 00             	lea    0x0(%esi),%esi
  401aa0:	8b 04 9d 14 90 40 00 	mov    0x409014(,%ebx,4),%eax
  401aa7:	85 c0                	test   %eax,%eax
  401aa9:	74 02                	je     401aad <___dyn_tls_init@12+0x5d>
  401aab:	ff d0                	call   *%eax
  401aad:	83 c3 01             	add    $0x1,%ebx
  401ab0:	39 de                	cmp    %ebx,%esi
  401ab2:	7f ec                	jg     401aa0 <___dyn_tls_init@12+0x50>
  401ab4:	83 c4 14             	add    $0x14,%esp
  401ab7:	b8 01 00 00 00       	mov    $0x1,%eax
  401abc:	5b                   	pop    %ebx
  401abd:	5e                   	pop    %esi
  401abe:	c2 0c 00             	ret    $0xc
  401ac1:	8d b4 26 00 00 00 00 	lea    0x0(%esi,%eiz,1),%esi
  401ac8:	8b 44 24 28          	mov    0x28(%esp),%eax
  401acc:	c7 44 24 04 01 00 00 	movl   $0x1,0x4(%esp)
  401ad3:	00 
  401ad4:	89 44 24 08          	mov    %eax,0x8(%esp)
  401ad8:	8b 44 24 20          	mov    0x20(%esp),%eax
  401adc:	89 04 24             	mov    %eax,(%esp)
  401adf:	e8 9c 01 00 00       	call   401c80 <___mingw_TLScallback>
  401ae4:	83 c4 14             	add    $0x14,%esp
  401ae7:	b8 01 00 00 00       	mov    $0x1,%eax
  401aec:	5b                   	pop    %ebx
  401aed:	5e                   	pop    %esi
  401aee:	c2 0c 00             	ret    $0xc
  401af1:	8d b4 26 00 00 00 00 	lea    0x0(%esi,%eiz,1),%esi
  401af8:	8d b4 26 00 00 00 00 	lea    0x0(%esi,%eiz,1),%esi
  401aff:	90                   	nop

00401b00 <___tlregdtor>:
  401b00:	31 c0                	xor    %eax,%eax
  401b02:	c3                   	ret    
  401b03:	90                   	nop
  401b04:	90                   	nop
  401b05:	90                   	nop
  401b06:	90                   	nop
  401b07:	90                   	nop
  401b08:	90                   	nop
  401b09:	90                   	nop
  401b0a:	90                   	nop
  401b0b:	90                   	nop
  401b0c:	90                   	nop
  401b0d:	90                   	nop
  401b0e:	90                   	nop
  401b0f:	90                   	nop

00401b10 <.text>:
  401b10:	56                   	push   %esi
  401b11:	53                   	push   %ebx
  401b12:	83 ec 14             	sub    $0x14,%esp
  401b15:	c7 04 24 44 70 40 00 	movl   $0x407044,(%esp)
  401b1c:	e8 1b 24 00 00       	call   403f3c <_EnterCriticalSection@4>
  401b21:	8b 1d 3c 70 40 00    	mov    0x40703c,%ebx
  401b27:	83 ec 04             	sub    $0x4,%esp
  401b2a:	85 db                	test   %ebx,%ebx
  401b2c:	74 2d                	je     401b5b <.text+0x4b>
  401b2e:	66 90                	xchg   %ax,%ax
  401b30:	8b 03                	mov    (%ebx),%eax
  401b32:	89 04 24             	mov    %eax,(%esp)
  401b35:	e8 92 23 00 00       	call   403ecc <_TlsGetValue@4>
  401b3a:	83 ec 04             	sub    $0x4,%esp
  401b3d:	89 c6                	mov    %eax,%esi
  401b3f:	e8 c0 23 00 00       	call   403f04 <_GetLastError@0>
  401b44:	85 c0                	test   %eax,%eax
  401b46:	75 0c                	jne    401b54 <.text+0x44>
  401b48:	85 f6                	test   %esi,%esi
  401b4a:	74 08                	je     401b54 <.text+0x44>
  401b4c:	8b 43 04             	mov    0x4(%ebx),%eax
  401b4f:	89 34 24             	mov    %esi,(%esp)
  401b52:	ff d0                	call   *%eax
  401b54:	8b 5b 08             	mov    0x8(%ebx),%ebx
  401b57:	85 db                	test   %ebx,%ebx
  401b59:	75 d5                	jne    401b30 <.text+0x20>
  401b5b:	c7 04 24 44 70 40 00 	movl   $0x407044,(%esp)
  401b62:	e8 7d 23 00 00       	call   403ee4 <_LeaveCriticalSection@4>
  401b67:	83 ec 04             	sub    $0x4,%esp
  401b6a:	83 c4 14             	add    $0x14,%esp
  401b6d:	5b                   	pop    %ebx
  401b6e:	5e                   	pop    %esi
  401b6f:	c3                   	ret    

00401b70 <____w64_mingwthr_add_key_dtor>:
  401b70:	a1 40 70 40 00       	mov    0x407040,%eax
  401b75:	85 c0                	test   %eax,%eax
  401b77:	75 07                	jne    401b80 <____w64_mingwthr_add_key_dtor+0x10>
  401b79:	c3                   	ret    
  401b7a:	8d b6 00 00 00 00    	lea    0x0(%esi),%esi
  401b80:	53                   	push   %ebx
  401b81:	83 ec 18             	sub    $0x18,%esp
  401b84:	c7 44 24 04 0c 00 00 	movl   $0xc,0x4(%esp)
  401b8b:	00 
  401b8c:	c7 04 24 01 00 00 00 	movl   $0x1,(%esp)
  401b93:	e8 cc 22 00 00       	call   403e64 <_calloc>
  401b98:	89 c3                	mov    %eax,%ebx
  401b9a:	85 c0                	test   %eax,%eax
  401b9c:	74 40                	je     401bde <____w64_mingwthr_add_key_dtor+0x6e>
  401b9e:	8b 44 24 20          	mov    0x20(%esp),%eax
  401ba2:	c7 04 24 44 70 40 00 	movl   $0x407044,(%esp)
  401ba9:	89 03                	mov    %eax,(%ebx)
  401bab:	8b 44 24 24          	mov    0x24(%esp),%eax
  401baf:	89 43 04             	mov    %eax,0x4(%ebx)
  401bb2:	e8 85 23 00 00       	call   403f3c <_EnterCriticalSection@4>
  401bb7:	a1 3c 70 40 00       	mov    0x40703c,%eax
  401bbc:	89 1d 3c 70 40 00    	mov    %ebx,0x40703c
  401bc2:	83 ec 04             	sub    $0x4,%esp
  401bc5:	c7 04 24 44 70 40 00 	movl   $0x407044,(%esp)
  401bcc:	89 43 08             	mov    %eax,0x8(%ebx)
  401bcf:	e8 10 23 00 00       	call   403ee4 <_LeaveCriticalSection@4>
  401bd4:	31 c0                	xor    %eax,%eax
  401bd6:	83 ec 04             	sub    $0x4,%esp
  401bd9:	83 c4 18             	add    $0x18,%esp
  401bdc:	5b                   	pop    %ebx
  401bdd:	c3                   	ret    
  401bde:	83 c8 ff             	or     $0xffffffff,%eax
  401be1:	eb f6                	jmp    401bd9 <____w64_mingwthr_add_key_dtor+0x69>
  401be3:	8d b4 26 00 00 00 00 	lea    0x0(%esi,%eiz,1),%esi
  401bea:	8d b6 00 00 00 00    	lea    0x0(%esi),%esi

00401bf0 <____w64_mingwthr_remove_key_dtor>:
  401bf0:	53                   	push   %ebx
  401bf1:	83 ec 18             	sub    $0x18,%esp
  401bf4:	a1 40 70 40 00       	mov    0x407040,%eax
  401bf9:	8b 5c 24 20          	mov    0x20(%esp),%ebx
  401bfd:	85 c0                	test   %eax,%eax
  401bff:	75 0f                	jne    401c10 <____w64_mingwthr_remove_key_dtor+0x20>
  401c01:	83 c4 18             	add    $0x18,%esp
  401c04:	31 c0                	xor    %eax,%eax
  401c06:	5b                   	pop    %ebx
  401c07:	c3                   	ret    
  401c08:	8d b4 26 00 00 00 00 	lea    0x0(%esi,%eiz,1),%esi
  401c0f:	90                   	nop
  401c10:	c7 04 24 44 70 40 00 	movl   $0x407044,(%esp)
  401c17:	e8 20 23 00 00       	call   403f3c <_EnterCriticalSection@4>
  401c1c:	a1 3c 70 40 00       	mov    0x40703c,%eax
  401c21:	83 ec 04             	sub    $0x4,%esp
  401c24:	85 c0                	test   %eax,%eax
  401c26:	74 28                	je     401c50 <____w64_mingwthr_remove_key_dtor+0x60>
  401c28:	31 c9                	xor    %ecx,%ecx
  401c2a:	eb 0c                	jmp    401c38 <____w64_mingwthr_remove_key_dtor+0x48>
  401c2c:	8d 74 26 00          	lea    0x0(%esi,%eiz,1),%esi
  401c30:	89 c1                	mov    %eax,%ecx
  401c32:	85 d2                	test   %edx,%edx
  401c34:	74 1a                	je     401c50 <____w64_mingwthr_remove_key_dtor+0x60>
  401c36:	89 d0                	mov    %edx,%eax
  401c38:	8b 10                	mov    (%eax),%edx
  401c3a:	39 da                	cmp    %ebx,%edx
  401c3c:	8b 50 08             	mov    0x8(%eax),%edx
  401c3f:	75 ef                	jne    401c30 <____w64_mingwthr_remove_key_dtor+0x40>
  401c41:	85 c9                	test   %ecx,%ecx
  401c43:	74 2b                	je     401c70 <____w64_mingwthr_remove_key_dtor+0x80>
  401c45:	89 51 08             	mov    %edx,0x8(%ecx)
  401c48:	89 04 24             	mov    %eax,(%esp)
  401c4b:	e8 a0 04 00 00       	call   4020f0 <___mingw_aligned_free>
  401c50:	c7 04 24 44 70 40 00 	movl   $0x407044,(%esp)
  401c57:	e8 88 22 00 00       	call   403ee4 <_LeaveCriticalSection@4>
  401c5c:	31 c0                	xor    %eax,%eax
  401c5e:	83 ec 04             	sub    $0x4,%esp
  401c61:	83 c4 18             	add    $0x18,%esp
  401c64:	5b                   	pop    %ebx
  401c65:	c3                   	ret    
  401c66:	8d b4 26 00 00 00 00 	lea    0x0(%esi,%eiz,1),%esi
  401c6d:	8d 76 00             	lea    0x0(%esi),%esi
  401c70:	89 15 3c 70 40 00    	mov    %edx,0x40703c
  401c76:	eb d0                	jmp    401c48 <____w64_mingwthr_remove_key_dtor+0x58>
  401c78:	8d b4 26 00 00 00 00 	lea    0x0(%esi,%eiz,1),%esi
  401c7f:	90                   	nop

00401c80 <___mingw_TLScallback>:
  401c80:	83 ec 1c             	sub    $0x1c,%esp
  401c83:	8b 44 24 24          	mov    0x24(%esp),%eax
  401c87:	83 f8 01             	cmp    $0x1,%eax
  401c8a:	74 14                	je     401ca0 <___mingw_TLScallback+0x20>
  401c8c:	83 f8 03             	cmp    $0x3,%eax
  401c8f:	74 5f                	je     401cf0 <___mingw_TLScallback+0x70>
  401c91:	85 c0                	test   %eax,%eax
  401c93:	74 2b                	je     401cc0 <___mingw_TLScallback+0x40>
  401c95:	b8 01 00 00 00       	mov    $0x1,%eax
  401c9a:	83 c4 1c             	add    $0x1c,%esp
  401c9d:	c3                   	ret    
  401c9e:	66 90                	xchg   %ax,%ax
  401ca0:	a1 40 70 40 00       	mov    0x407040,%eax
  401ca5:	85 c0                	test   %eax,%eax
  401ca7:	74 7f                	je     401d28 <___mingw_TLScallback+0xa8>
  401ca9:	c7 05 40 70 40 00 01 	movl   $0x1,0x407040
  401cb0:	00 00 00 
  401cb3:	b8 01 00 00 00       	mov    $0x1,%eax
  401cb8:	83 c4 1c             	add    $0x1c,%esp
  401cbb:	c3                   	ret    
  401cbc:	8d 74 26 00          	lea    0x0(%esi,%eiz,1),%esi
  401cc0:	a1 40 70 40 00       	mov    0x407040,%eax
  401cc5:	85 c0                	test   %eax,%eax
  401cc7:	75 47                	jne    401d10 <___mingw_TLScallback+0x90>
  401cc9:	a1 40 70 40 00       	mov    0x407040,%eax
  401cce:	83 f8 01             	cmp    $0x1,%eax
  401cd1:	75 c2                	jne    401c95 <___mingw_TLScallback+0x15>
  401cd3:	c7 04 24 44 70 40 00 	movl   $0x407044,(%esp)
  401cda:	c7 05 40 70 40 00 00 	movl   $0x0,0x407040
  401ce1:	00 00 00 
  401ce4:	e8 5b 22 00 00       	call   403f44 <_DeleteCriticalSection@4>
  401ce9:	83 ec 04             	sub    $0x4,%esp
  401cec:	eb a7                	jmp    401c95 <___mingw_TLScallback+0x15>
  401cee:	66 90                	xchg   %ax,%ax
  401cf0:	a1 40 70 40 00       	mov    0x407040,%eax
  401cf5:	85 c0                	test   %eax,%eax
  401cf7:	74 9c                	je     401c95 <___mingw_TLScallback+0x15>
  401cf9:	e8 12 fe ff ff       	call   401b10 <.text>
  401cfe:	b8 01 00 00 00       	mov    $0x1,%eax
  401d03:	83 c4 1c             	add    $0x1c,%esp
  401d06:	c3                   	ret    
  401d07:	8d b4 26 00 00 00 00 	lea    0x0(%esi,%eiz,1),%esi
  401d0e:	66 90                	xchg   %ax,%ax
  401d10:	e8 fb fd ff ff       	call   401b10 <.text>
  401d15:	a1 40 70 40 00       	mov    0x407040,%eax
  401d1a:	83 f8 01             	cmp    $0x1,%eax
  401d1d:	0f 85 72 ff ff ff    	jne    401c95 <___mingw_TLScallback+0x15>
  401d23:	eb ae                	jmp    401cd3 <___mingw_TLScallback+0x53>
  401d25:	8d 76 00             	lea    0x0(%esi),%esi
  401d28:	c7 04 24 44 70 40 00 	movl   $0x407044,(%esp)
  401d2f:	e8 b8 21 00 00       	call   403eec <_InitializeCriticalSection@4>
  401d34:	83 ec 04             	sub    $0x4,%esp
  401d37:	e9 6d ff ff ff       	jmp    401ca9 <___mingw_TLScallback+0x29>
  401d3c:	90                   	nop
  401d3d:	90                   	nop
  401d3e:	90                   	nop
  401d3f:	90                   	nop

00401d40 <.text>:
  401d40:	56                   	push   %esi
  401d41:	53                   	push   %ebx
  401d42:	83 ec 14             	sub    $0x14,%esp
  401d45:	a1 ac 81 40 00       	mov    0x4081ac,%eax
  401d4a:	c7 44 24 08 17 00 00 	movl   $0x17,0x8(%esp)
  401d51:	00 
  401d52:	8d 74 24 24          	lea    0x24(%esp),%esi
  401d56:	8d 58 40             	lea    0x40(%eax),%ebx
  401d59:	c7 44 24 04 01 00 00 	movl   $0x1,0x4(%esp)
  401d60:	00 
  401d61:	89 5c 24 0c          	mov    %ebx,0xc(%esp)
  401d65:	c7 04 24 68 51 40 00 	movl   $0x405168,(%esp)
  401d6c:	e8 eb 20 00 00       	call   403e5c <_fwrite>
  401d71:	8b 44 24 20          	mov    0x20(%esp),%eax
  401d75:	89 74 24 08          	mov    %esi,0x8(%esp)
  401d79:	89 1c 24             	mov    %ebx,(%esp)
  401d7c:	89 44 24 04          	mov    %eax,0x4(%esp)
  401d80:	e8 7f 20 00 00       	call   403e04 <_vfprintf>
  401d85:	e8 e2 20 00 00       	call   403e6c <_abort>
  401d8a:	8d b6 00 00 00 00    	lea    0x0(%esi),%esi
  401d90:	55                   	push   %ebp
  401d91:	57                   	push   %edi
  401d92:	89 d7                	mov    %edx,%edi
  401d94:	56                   	push   %esi
  401d95:	89 ce                	mov    %ecx,%esi
  401d97:	53                   	push   %ebx
  401d98:	89 c3                	mov    %eax,%ebx
  401d9a:	83 ec 3c             	sub    $0x3c,%esp
  401d9d:	8d 44 24 14          	lea    0x14(%esp),%eax
  401da1:	c7 44 24 08 1c 00 00 	movl   $0x1c,0x8(%esp)
  401da8:	00 
  401da9:	89 44 24 04          	mov    %eax,0x4(%esp)
  401dad:	89 1c 24             	mov    %ebx,(%esp)
  401db0:	e8 07 21 00 00       	call   403ebc <_VirtualQuery@12>
  401db5:	83 ec 0c             	sub    $0xc,%esp
  401db8:	85 c0                	test   %eax,%eax
  401dba:	0f 84 a4 00 00 00    	je     401e64 <.text+0x124>
  401dc0:	8b 44 24 28          	mov    0x28(%esp),%eax
  401dc4:	83 f8 40             	cmp    $0x40,%eax
  401dc7:	74 05                	je     401dce <.text+0x8e>
  401dc9:	83 f8 04             	cmp    $0x4,%eax
  401dcc:	75 22                	jne    401df0 <.text+0xb0>
  401dce:	85 f6                	test   %esi,%esi
  401dd0:	74 10                	je     401de2 <.text+0xa2>
  401dd2:	31 c0                	xor    %eax,%eax
  401dd4:	0f b6 0c 07          	movzbl (%edi,%eax,1),%ecx
  401dd8:	88 0c 03             	mov    %cl,(%ebx,%eax,1)
  401ddb:	83 c0 01             	add    $0x1,%eax
  401dde:	39 f0                	cmp    %esi,%eax
  401de0:	72 f2                	jb     401dd4 <.text+0x94>
  401de2:	83 c4 3c             	add    $0x3c,%esp
  401de5:	5b                   	pop    %ebx
  401de6:	5e                   	pop    %esi
  401de7:	5f                   	pop    %edi
  401de8:	5d                   	pop    %ebp
  401de9:	c3                   	ret    
  401dea:	8d b6 00 00 00 00    	lea    0x0(%esi),%esi
  401df0:	8b 44 24 20          	mov    0x20(%esp),%eax
  401df4:	8d 6c 24 10          	lea    0x10(%esp),%ebp
  401df8:	c7 44 24 08 40 00 00 	movl   $0x40,0x8(%esp)
  401dff:	00 
  401e00:	89 6c 24 0c          	mov    %ebp,0xc(%esp)
  401e04:	89 44 24 04          	mov    %eax,0x4(%esp)
  401e08:	8b 44 24 14          	mov    0x14(%esp),%eax
  401e0c:	89 04 24             	mov    %eax,(%esp)
  401e0f:	e8 b0 20 00 00       	call   403ec4 <_VirtualProtect@16>
  401e14:	83 ec 10             	sub    $0x10,%esp
  401e17:	8b 4c 24 28          	mov    0x28(%esp),%ecx
  401e1b:	85 f6                	test   %esi,%esi
  401e1d:	74 10                	je     401e2f <.text+0xef>
  401e1f:	31 d2                	xor    %edx,%edx
  401e21:	0f b6 04 17          	movzbl (%edi,%edx,1),%eax
  401e25:	88 04 13             	mov    %al,(%ebx,%edx,1)
  401e28:	83 c2 01             	add    $0x1,%edx
  401e2b:	39 f2                	cmp    %esi,%edx
  401e2d:	72 f2                	jb     401e21 <.text+0xe1>
  401e2f:	83 f9 40             	cmp    $0x40,%ecx
  401e32:	74 ae                	je     401de2 <.text+0xa2>
  401e34:	83 f9 04             	cmp    $0x4,%ecx
  401e37:	74 a9                	je     401de2 <.text+0xa2>
  401e39:	8b 44 24 10          	mov    0x10(%esp),%eax
  401e3d:	89 6c 24 0c          	mov    %ebp,0xc(%esp)
  401e41:	89 44 24 08          	mov    %eax,0x8(%esp)
  401e45:	8b 44 24 20          	mov    0x20(%esp),%eax
  401e49:	89 44 24 04          	mov    %eax,0x4(%esp)
  401e4d:	8b 44 24 14          	mov    0x14(%esp),%eax
  401e51:	89 04 24             	mov    %eax,(%esp)
  401e54:	e8 6b 20 00 00       	call   403ec4 <_VirtualProtect@16>
  401e59:	83 ec 10             	sub    $0x10,%esp
  401e5c:	83 c4 3c             	add    $0x3c,%esp
  401e5f:	5b                   	pop    %ebx
  401e60:	5e                   	pop    %esi
  401e61:	5f                   	pop    %edi
  401e62:	5d                   	pop    %ebp
  401e63:	c3                   	ret    
  401e64:	89 5c 24 08          	mov    %ebx,0x8(%esp)
  401e68:	c7 44 24 04 1c 00 00 	movl   $0x1c,0x4(%esp)
  401e6f:	00 
  401e70:	c7 04 24 80 51 40 00 	movl   $0x405180,(%esp)
  401e77:	e8 c4 fe ff ff       	call   401d40 <.text>
  401e7c:	8d 74 26 00          	lea    0x0(%esi,%eiz,1),%esi

00401e80 <__pei386_runtime_relocator>:
  401e80:	a1 5c 70 40 00       	mov    0x40705c,%eax
  401e85:	85 c0                	test   %eax,%eax
  401e87:	74 07                	je     401e90 <__pei386_runtime_relocator+0x10>
  401e89:	c3                   	ret    
  401e8a:	8d b6 00 00 00 00    	lea    0x0(%esi),%esi
  401e90:	c7 05 5c 70 40 00 01 	movl   $0x1,0x40705c
  401e97:	00 00 00 
  401e9a:	b8 34 57 40 00       	mov    $0x405734,%eax
  401e9f:	2d 34 57 40 00       	sub    $0x405734,%eax
  401ea4:	83 f8 07             	cmp    $0x7,%eax
  401ea7:	7e e0                	jle    401e89 <__pei386_runtime_relocator+0x9>
  401ea9:	57                   	push   %edi
  401eaa:	56                   	push   %esi
  401eab:	53                   	push   %ebx
  401eac:	83 ec 20             	sub    $0x20,%esp
  401eaf:	8b 15 34 57 40 00    	mov    0x405734,%edx
  401eb5:	83 f8 0b             	cmp    $0xb,%eax
  401eb8:	0f 8f 92 00 00 00    	jg     401f50 <__pei386_runtime_relocator+0xd0>
  401ebe:	bb 34 57 40 00       	mov    $0x405734,%ebx
  401ec3:	85 d2                	test   %edx,%edx
  401ec5:	0f 85 3a 01 00 00    	jne    402005 <__pei386_runtime_relocator+0x185>
  401ecb:	8b 43 04             	mov    0x4(%ebx),%eax
  401ece:	85 c0                	test   %eax,%eax
  401ed0:	0f 85 2f 01 00 00    	jne    402005 <__pei386_runtime_relocator+0x185>
  401ed6:	8b 43 08             	mov    0x8(%ebx),%eax
  401ed9:	83 f8 01             	cmp    $0x1,%eax
  401edc:	0f 85 78 01 00 00    	jne    40205a <__pei386_runtime_relocator+0x1da>
  401ee2:	8d b6 00 00 00 00    	lea    0x0(%esi),%esi
  401ee8:	83 c3 0c             	add    $0xc,%ebx
  401eeb:	81 fb 34 57 40 00    	cmp    $0x405734,%ebx
  401ef1:	73 4c                	jae    401f3f <__pei386_runtime_relocator+0xbf>
  401ef3:	8b 03                	mov    (%ebx),%eax
  401ef5:	8b 4b 04             	mov    0x4(%ebx),%ecx
  401ef8:	0f b6 53 08          	movzbl 0x8(%ebx),%edx
  401efc:	8d b8 00 00 40 00    	lea    0x400000(%eax),%edi
  401f02:	8d b1 00 00 40 00    	lea    0x400000(%ecx),%esi
  401f08:	8b 80 00 00 40 00    	mov    0x400000(%eax),%eax
  401f0e:	83 fa 10             	cmp    $0x10,%edx
  401f11:	0f 84 89 00 00 00    	je     401fa0 <__pei386_runtime_relocator+0x120>
  401f17:	83 fa 20             	cmp    $0x20,%edx
  401f1a:	75 64                	jne    401f80 <__pei386_runtime_relocator+0x100>
  401f1c:	29 f8                	sub    %edi,%eax
  401f1e:	03 06                	add    (%esi),%eax
  401f20:	b9 04 00 00 00       	mov    $0x4,%ecx
  401f25:	83 c3 0c             	add    $0xc,%ebx
  401f28:	89 44 24 1c          	mov    %eax,0x1c(%esp)
  401f2c:	8d 54 24 1c          	lea    0x1c(%esp),%edx
  401f30:	89 f0                	mov    %esi,%eax
  401f32:	e8 59 fe ff ff       	call   401d90 <.text+0x50>
  401f37:	81 fb 34 57 40 00    	cmp    $0x405734,%ebx
  401f3d:	72 b4                	jb     401ef3 <__pei386_runtime_relocator+0x73>
  401f3f:	83 c4 20             	add    $0x20,%esp
  401f42:	5b                   	pop    %ebx
  401f43:	5e                   	pop    %esi
  401f44:	5f                   	pop    %edi
  401f45:	c3                   	ret    
  401f46:	8d b4 26 00 00 00 00 	lea    0x0(%esi,%eiz,1),%esi
  401f4d:	8d 76 00             	lea    0x0(%esi),%esi
  401f50:	85 d2                	test   %edx,%edx
  401f52:	0f 85 a8 00 00 00    	jne    402000 <__pei386_runtime_relocator+0x180>
  401f58:	a1 38 57 40 00       	mov    0x405738,%eax
  401f5d:	89 c7                	mov    %eax,%edi
  401f5f:	0b 3d 3c 57 40 00    	or     0x40573c,%edi
  401f65:	0f 85 e5 00 00 00    	jne    402050 <__pei386_runtime_relocator+0x1d0>
  401f6b:	8b 15 40 57 40 00    	mov    0x405740,%edx
  401f71:	bb 40 57 40 00       	mov    $0x405740,%ebx
  401f76:	e9 48 ff ff ff       	jmp    401ec3 <__pei386_runtime_relocator+0x43>
  401f7b:	8d 74 26 00          	lea    0x0(%esi,%eiz,1),%esi
  401f7f:	90                   	nop
  401f80:	83 fa 08             	cmp    $0x8,%edx
  401f83:	74 4b                	je     401fd0 <__pei386_runtime_relocator+0x150>
  401f85:	89 54 24 04          	mov    %edx,0x4(%esp)
  401f89:	c7 04 24 e8 51 40 00 	movl   $0x4051e8,(%esp)
  401f90:	c7 44 24 1c 00 00 00 	movl   $0x0,0x1c(%esp)
  401f97:	00 
  401f98:	e8 a3 fd ff ff       	call   401d40 <.text>
  401f9d:	8d 76 00             	lea    0x0(%esi),%esi
  401fa0:	0f b7 91 00 00 40 00 	movzwl 0x400000(%ecx),%edx
  401fa7:	66 85 d2             	test   %dx,%dx
  401faa:	79 06                	jns    401fb2 <__pei386_runtime_relocator+0x132>
  401fac:	81 ca 00 00 ff ff    	or     $0xffff0000,%edx
  401fb2:	29 fa                	sub    %edi,%edx
  401fb4:	b9 02 00 00 00       	mov    $0x2,%ecx
  401fb9:	01 d0                	add    %edx,%eax
  401fbb:	8d 54 24 1c          	lea    0x1c(%esp),%edx
  401fbf:	89 44 24 1c          	mov    %eax,0x1c(%esp)
  401fc3:	89 f0                	mov    %esi,%eax
  401fc5:	e8 c6 fd ff ff       	call   401d90 <.text+0x50>
  401fca:	e9 19 ff ff ff       	jmp    401ee8 <__pei386_runtime_relocator+0x68>
  401fcf:	90                   	nop
  401fd0:	0f b6 0e             	movzbl (%esi),%ecx
  401fd3:	84 c9                	test   %cl,%cl
  401fd5:	79 06                	jns    401fdd <__pei386_runtime_relocator+0x15d>
  401fd7:	81 c9 00 ff ff ff    	or     $0xffffff00,%ecx
  401fdd:	29 f9                	sub    %edi,%ecx
  401fdf:	8d 54 24 1c          	lea    0x1c(%esp),%edx
  401fe3:	01 c8                	add    %ecx,%eax
  401fe5:	b9 01 00 00 00       	mov    $0x1,%ecx
  401fea:	89 44 24 1c          	mov    %eax,0x1c(%esp)
  401fee:	89 f0                	mov    %esi,%eax
  401ff0:	e8 9b fd ff ff       	call   401d90 <.text+0x50>
  401ff5:	e9 ee fe ff ff       	jmp    401ee8 <__pei386_runtime_relocator+0x68>
  401ffa:	8d b6 00 00 00 00    	lea    0x0(%esi),%esi
  402000:	bb 34 57 40 00       	mov    $0x405734,%ebx
  402005:	81 fb 34 57 40 00    	cmp    $0x405734,%ebx
  40200b:	0f 83 2e ff ff ff    	jae    401f3f <__pei386_runtime_relocator+0xbf>
  402011:	8d b4 26 00 00 00 00 	lea    0x0(%esi,%eiz,1),%esi
  402018:	8b 53 04             	mov    0x4(%ebx),%edx
  40201b:	8b 03                	mov    (%ebx),%eax
  40201d:	b9 04 00 00 00       	mov    $0x4,%ecx
  402022:	83 c3 08             	add    $0x8,%ebx
  402025:	03 82 00 00 40 00    	add    0x400000(%edx),%eax
  40202b:	8d b2 00 00 40 00    	lea    0x400000(%edx),%esi
  402031:	8d 54 24 1c          	lea    0x1c(%esp),%edx
  402035:	89 44 24 1c          	mov    %eax,0x1c(%esp)
  402039:	89 f0                	mov    %esi,%eax
  40203b:	e8 50 fd ff ff       	call   401d90 <.text+0x50>
  402040:	81 fb 34 57 40 00    	cmp    $0x405734,%ebx
  402046:	72 d0                	jb     402018 <__pei386_runtime_relocator+0x198>
  402048:	83 c4 20             	add    $0x20,%esp
  40204b:	5b                   	pop    %ebx
  40204c:	5e                   	pop    %esi
  40204d:	5f                   	pop    %edi
  40204e:	c3                   	ret    
  40204f:	90                   	nop
  402050:	bb 34 57 40 00       	mov    $0x405734,%ebx
  402055:	e9 74 fe ff ff       	jmp    401ece <__pei386_runtime_relocator+0x4e>
  40205a:	89 44 24 04          	mov    %eax,0x4(%esp)
  40205e:	c7 04 24 b4 51 40 00 	movl   $0x4051b4,(%esp)
  402065:	e8 d6 fc ff ff       	call   401d40 <.text>
  40206a:	90                   	nop
  40206b:	90                   	nop
  40206c:	90                   	nop
  40206d:	90                   	nop
  40206e:	90                   	nop
  40206f:	90                   	nop

00402070 <_fesetenv>:
  402070:	83 ec 1c             	sub    $0x1c,%esp
  402073:	8b 44 24 20          	mov    0x20(%esp),%eax
  402077:	c7 44 24 0c 80 1f 00 	movl   $0x1f80,0xc(%esp)
  40207e:	00 
  40207f:	83 f8 fd             	cmp    $0xfffffffd,%eax
  402082:	74 4c                	je     4020d0 <_fesetenv+0x60>
  402084:	83 f8 fc             	cmp    $0xfffffffc,%eax
  402087:	74 2f                	je     4020b8 <_fesetenv+0x48>
  402089:	85 c0                	test   %eax,%eax
  40208b:	74 53                	je     4020e0 <_fesetenv+0x70>
  40208d:	83 f8 ff             	cmp    $0xffffffff,%eax
  402090:	74 48                	je     4020da <_fesetenv+0x6a>
  402092:	83 f8 fe             	cmp    $0xfffffffe,%eax
  402095:	74 2b                	je     4020c2 <_fesetenv+0x52>
  402097:	d9 20                	fldenv (%eax)
  402099:	0f b7 40 1c          	movzwl 0x1c(%eax),%eax
  40209d:	89 44 24 0c          	mov    %eax,0xc(%esp)
  4020a1:	f6 05 24 70 40 00 10 	testb  $0x10,0x407024
  4020a8:	74 05                	je     4020af <_fesetenv+0x3f>
  4020aa:	0f ae 54 24 0c       	ldmxcsr 0xc(%esp)
  4020af:	31 c0                	xor    %eax,%eax
  4020b1:	83 c4 1c             	add    $0x1c,%esp
  4020b4:	c3                   	ret    
  4020b5:	8d 76 00             	lea    0x0(%esi),%esi
  4020b8:	c7 05 14 40 40 00 fe 	movl   $0xfffffffe,0x404014
  4020bf:	ff ff ff 
  4020c2:	ff 15 a4 81 40 00    	call   *0x4081a4
  4020c8:	eb d7                	jmp    4020a1 <_fesetenv+0x31>
  4020ca:	8d b6 00 00 00 00    	lea    0x0(%esi),%esi
  4020d0:	c7 05 14 40 40 00 ff 	movl   $0xffffffff,0x404014
  4020d7:	ff ff ff 
  4020da:	db e3                	fninit 
  4020dc:	eb c3                	jmp    4020a1 <_fesetenv+0x31>
  4020de:	66 90                	xchg   %ax,%ax
  4020e0:	a1 14 40 40 00       	mov    0x404014,%eax
  4020e5:	eb a6                	jmp    40208d <_fesetenv+0x1d>
  4020e7:	90                   	nop
  4020e8:	90                   	nop
  4020e9:	90                   	nop
  4020ea:	90                   	nop
  4020eb:	90                   	nop
  4020ec:	90                   	nop
  4020ed:	90                   	nop
  4020ee:	90                   	nop
  4020ef:	90                   	nop

004020f0 <___mingw_aligned_free>:
  4020f0:	83 ec 2c             	sub    $0x2c,%esp
  4020f3:	8d 44 24 10          	lea    0x10(%esp),%eax
  4020f7:	89 44 24 04          	mov    %eax,0x4(%esp)
  4020fb:	8b 44 24 30          	mov    0x30(%esp),%eax
  4020ff:	89 04 24             	mov    %eax,(%esp)
  402102:	e8 99 1a 00 00       	call   403ba0 <___mingw_memalign_base>
  402107:	89 04 24             	mov    %eax,(%esp)
  40210a:	ff 15 04 82 40 00    	call   *0x408204
  402110:	83 c4 2c             	add    $0x2c,%esp
  402113:	c3                   	ret    
  402114:	90                   	nop
  402115:	90                   	nop
  402116:	90                   	nop
  402117:	90                   	nop
  402118:	90                   	nop
  402119:	90                   	nop
  40211a:	90                   	nop
  40211b:	90                   	nop
  40211c:	90                   	nop
  40211d:	90                   	nop
  40211e:	90                   	nop
  40211f:	90                   	nop

00402120 <.text>:
  402120:	55                   	push   %ebp
  402121:	57                   	push   %edi
  402122:	56                   	push   %esi
  402123:	53                   	push   %ebx
  402124:	83 ec 3c             	sub    $0x3c,%esp
  402127:	0f be 28             	movsbl (%eax),%ebp
  40212a:	89 54 24 1c          	mov    %edx,0x1c(%esp)
  40212e:	89 4c 24 28          	mov    %ecx,0x28(%esp)
  402132:	89 eb                	mov    %ebp,%ebx
  402134:	83 fd 2d             	cmp    $0x2d,%ebp
  402137:	0f 84 db 00 00 00    	je     402218 <.text+0xf8>
  40213d:	89 c2                	mov    %eax,%edx
  40213f:	83 fd 5d             	cmp    $0x5d,%ebp
  402142:	0f 84 d0 00 00 00    	je     402218 <.text+0xf8>
  402148:	8b 44 24 28          	mov    0x28(%esp),%eax
  40214c:	25 00 40 00 00       	and    $0x4000,%eax
  402151:	89 44 24 20          	mov    %eax,0x20(%esp)
  402155:	89 e8                	mov    %ebp,%eax
  402157:	89 d5                	mov    %edx,%ebp
  402159:	89 da                	mov    %ebx,%edx
  40215b:	89 c3                	mov    %eax,%ebx
  40215d:	eb 0b                	jmp    40216a <.text+0x4a>
  40215f:	90                   	nop
  402160:	89 d6                	mov    %edx,%esi
  402162:	2b 74 24 1c          	sub    0x1c(%esp),%esi
  402166:	85 f6                	test   %esi,%esi
  402168:	74 64                	je     4021ce <.text+0xae>
  40216a:	8d 7d 01             	lea    0x1(%ebp),%edi
  40216d:	89 de                	mov    %ebx,%esi
  40216f:	83 fb 5d             	cmp    $0x5d,%ebx
  402172:	0f 84 d0 00 00 00    	je     402248 <.text+0x128>
  402178:	83 fb 2d             	cmp    $0x2d,%ebx
  40217b:	0f 84 b7 00 00 00    	je     402238 <.text+0x118>
  402181:	85 db                	test   %ebx,%ebx
  402183:	0f 84 bf 00 00 00    	je     402248 <.text+0x128>
  402189:	83 fe 2f             	cmp    $0x2f,%esi
  40218c:	0f 84 b6 00 00 00    	je     402248 <.text+0x128>
  402192:	83 fe 5c             	cmp    $0x5c,%esi
  402195:	0f 84 ad 00 00 00    	je     402248 <.text+0x128>
  40219b:	0f be 1f             	movsbl (%edi),%ebx
  40219e:	89 fd                	mov    %edi,%ebp
  4021a0:	89 f2                	mov    %esi,%edx
  4021a2:	8b 44 24 20          	mov    0x20(%esp),%eax
  4021a6:	85 c0                	test   %eax,%eax
  4021a8:	75 b6                	jne    402160 <.text+0x40>
  4021aa:	89 14 24             	mov    %edx,(%esp)
  4021ad:	89 54 24 24          	mov    %edx,0x24(%esp)
  4021b1:	e8 56 1c 00 00       	call   403e0c <_tolower>
  4021b6:	89 c6                	mov    %eax,%esi
  4021b8:	8b 44 24 1c          	mov    0x1c(%esp),%eax
  4021bc:	89 04 24             	mov    %eax,(%esp)
  4021bf:	e8 48 1c 00 00       	call   403e0c <_tolower>
  4021c4:	8b 54 24 24          	mov    0x24(%esp),%edx
  4021c8:	29 c6                	sub    %eax,%esi
  4021ca:	85 f6                	test   %esi,%esi
  4021cc:	75 9c                	jne    40216a <.text+0x4a>
  4021ce:	89 d9                	mov    %ebx,%ecx
  4021d0:	8b 5c 24 28          	mov    0x28(%esp),%ebx
  4021d4:	89 ea                	mov    %ebp,%edx
  4021d6:	83 e3 20             	and    $0x20,%ebx
  4021d9:	8d 42 01             	lea    0x1(%edx),%eax
  4021dc:	80 f9 5d             	cmp    $0x5d,%cl
  4021df:	74 69                	je     40224a <.text+0x12a>
  4021e1:	80 f9 7f             	cmp    $0x7f,%cl
  4021e4:	74 17                	je     4021fd <.text+0xdd>
  4021e6:	84 c9                	test   %cl,%cl
  4021e8:	74 5e                	je     402248 <.text+0x128>
  4021ea:	0f b6 4a 01          	movzbl 0x1(%edx),%ecx
  4021ee:	89 c2                	mov    %eax,%edx
  4021f0:	8d 42 01             	lea    0x1(%edx),%eax
  4021f3:	80 f9 5d             	cmp    $0x5d,%cl
  4021f6:	74 52                	je     40224a <.text+0x12a>
  4021f8:	80 f9 7f             	cmp    $0x7f,%cl
  4021fb:	75 e9                	jne    4021e6 <.text+0xc6>
  4021fd:	0f b6 4a 01          	movzbl 0x1(%edx),%ecx
  402201:	85 db                	test   %ebx,%ebx
  402203:	0f 85 1f 02 00 00    	jne    402428 <.text+0x308>
  402209:	8d 72 02             	lea    0x2(%edx),%esi
  40220c:	89 c2                	mov    %eax,%edx
  40220e:	89 f0                	mov    %esi,%eax
  402210:	eb d4                	jmp    4021e6 <.text+0xc6>
  402212:	8d b6 00 00 00 00    	lea    0x0(%esi),%esi
  402218:	0f b6 48 01          	movzbl 0x1(%eax),%ecx
  40221c:	8d 50 01             	lea    0x1(%eax),%edx
  40221f:	3b 6c 24 1c          	cmp    0x1c(%esp),%ebp
  402223:	0f 84 a7 01 00 00    	je     4023d0 <.text+0x2b0>
  402229:	0f be e9             	movsbl %cl,%ebp
  40222c:	e9 17 ff ff ff       	jmp    402148 <.text+0x28>
  402231:	8d b4 26 00 00 00 00 	lea    0x0(%esi,%eiz,1),%esi
  402238:	0f be 5d 01          	movsbl 0x1(%ebp),%ebx
  40223c:	80 fb 5d             	cmp    $0x5d,%bl
  40223f:	74 17                	je     402258 <.text+0x138>
  402241:	0f be f3             	movsbl %bl,%esi
  402244:	85 f6                	test   %esi,%esi
  402246:	75 20                	jne    402268 <.text+0x148>
  402248:	31 c0                	xor    %eax,%eax
  40224a:	83 c4 3c             	add    $0x3c,%esp
  40224d:	5b                   	pop    %ebx
  40224e:	5e                   	pop    %esi
  40224f:	5f                   	pop    %edi
  402250:	5d                   	pop    %ebp
  402251:	c3                   	ret    
  402252:	8d b6 00 00 00 00    	lea    0x0(%esi),%esi
  402258:	89 fd                	mov    %edi,%ebp
  40225a:	ba 2d 00 00 00       	mov    $0x2d,%edx
  40225f:	e9 3e ff ff ff       	jmp    4021a2 <.text+0x82>
  402264:	8d 74 26 00          	lea    0x0(%esi,%eiz,1),%esi
  402268:	8d 7d 02             	lea    0x2(%ebp),%edi
  40226b:	89 6c 24 24          	mov    %ebp,0x24(%esp)
  40226f:	89 d5                	mov    %edx,%ebp
  402271:	89 7c 24 2c          	mov    %edi,0x2c(%esp)
  402275:	89 f7                	mov    %esi,%edi
  402277:	8b 74 24 20          	mov    0x20(%esp),%esi
  40227b:	eb 10                	jmp    40228d <.text+0x16d>
  40227d:	8d 76 00             	lea    0x0(%esi),%esi
  402280:	89 eb                	mov    %ebp,%ebx
  402282:	2b 5c 24 1c          	sub    0x1c(%esp),%ebx
  402286:	83 c5 01             	add    $0x1,%ebp
  402289:	85 db                	test   %ebx,%ebx
  40228b:	74 27                	je     4022b4 <.text+0x194>
  40228d:	39 fd                	cmp    %edi,%ebp
  40228f:	7d 7f                	jge    402310 <.text+0x1f0>
  402291:	85 f6                	test   %esi,%esi
  402293:	75 eb                	jne    402280 <.text+0x160>
  402295:	89 2c 24             	mov    %ebp,(%esp)
  402298:	83 c5 01             	add    $0x1,%ebp
  40229b:	e8 6c 1b 00 00       	call   403e0c <_tolower>
  4022a0:	89 c3                	mov    %eax,%ebx
  4022a2:	8b 44 24 1c          	mov    0x1c(%esp),%eax
  4022a6:	89 04 24             	mov    %eax,(%esp)
  4022a9:	e8 5e 1b 00 00       	call   403e0c <_tolower>
  4022ae:	29 c3                	sub    %eax,%ebx
  4022b0:	85 db                	test   %ebx,%ebx
  4022b2:	75 d9                	jne    40228d <.text+0x16d>
  4022b4:	8b 54 24 24          	mov    0x24(%esp),%edx
  4022b8:	8b 4c 24 28          	mov    0x28(%esp),%ecx
  4022bc:	8b 7c 24 2c          	mov    0x2c(%esp),%edi
  4022c0:	0f b6 52 02          	movzbl 0x2(%edx),%edx
  4022c4:	83 e1 20             	and    $0x20,%ecx
  4022c7:	8d 47 01             	lea    0x1(%edi),%eax
  4022ca:	80 fa 5d             	cmp    $0x5d,%dl
  4022cd:	0f 84 77 ff ff ff    	je     40224a <.text+0x12a>
  4022d3:	80 fa 7f             	cmp    $0x7f,%dl
  4022d6:	74 1f                	je     4022f7 <.text+0x1d7>
  4022d8:	84 d2                	test   %dl,%dl
  4022da:	0f 84 68 ff ff ff    	je     402248 <.text+0x128>
  4022e0:	0f b6 57 01          	movzbl 0x1(%edi),%edx
  4022e4:	89 c7                	mov    %eax,%edi
  4022e6:	8d 47 01             	lea    0x1(%edi),%eax
  4022e9:	80 fa 5d             	cmp    $0x5d,%dl
  4022ec:	0f 84 58 ff ff ff    	je     40224a <.text+0x12a>
  4022f2:	80 fa 7f             	cmp    $0x7f,%dl
  4022f5:	75 e1                	jne    4022d8 <.text+0x1b8>
  4022f7:	0f b6 57 01          	movzbl 0x1(%edi),%edx
  4022fb:	85 c9                	test   %ecx,%ecx
  4022fd:	0f 85 bd 00 00 00    	jne    4023c0 <.text+0x2a0>
  402303:	8d 5f 02             	lea    0x2(%edi),%ebx
  402306:	89 c7                	mov    %eax,%edi
  402308:	89 d8                	mov    %ebx,%eax
  40230a:	eb cc                	jmp    4022d8 <.text+0x1b8>
  40230c:	8d 74 26 00          	lea    0x0(%esi,%eiz,1),%esi
  402310:	89 fe                	mov    %edi,%esi
  402312:	89 ea                	mov    %ebp,%edx
  402314:	8b 7c 24 2c          	mov    0x2c(%esp),%edi
  402318:	8b 6c 24 24          	mov    0x24(%esp),%ebp
  40231c:	89 7c 24 24          	mov    %edi,0x24(%esp)
  402320:	89 f7                	mov    %esi,%edi
  402322:	89 d6                	mov    %edx,%esi
  402324:	89 6c 24 2c          	mov    %ebp,0x2c(%esp)
  402328:	8b 6c 24 20          	mov    0x20(%esp),%ebp
  40232c:	eb 0f                	jmp    40233d <.text+0x21d>
  40232e:	66 90                	xchg   %ax,%ax
  402330:	89 f3                	mov    %esi,%ebx
  402332:	2b 5c 24 1c          	sub    0x1c(%esp),%ebx
  402336:	83 ee 01             	sub    $0x1,%esi
  402339:	85 db                	test   %ebx,%ebx
  40233b:	74 2b                	je     402368 <.text+0x248>
  40233d:	39 fe                	cmp    %edi,%esi
  40233f:	0f 8e eb 00 00 00    	jle    402430 <.text+0x310>
  402345:	85 ed                	test   %ebp,%ebp
  402347:	75 e7                	jne    402330 <.text+0x210>
  402349:	89 34 24             	mov    %esi,(%esp)
  40234c:	83 ee 01             	sub    $0x1,%esi
  40234f:	e8 b8 1a 00 00       	call   403e0c <_tolower>
  402354:	89 c3                	mov    %eax,%ebx
  402356:	8b 44 24 1c          	mov    0x1c(%esp),%eax
  40235a:	89 04 24             	mov    %eax,(%esp)
  40235d:	e8 aa 1a 00 00       	call   403e0c <_tolower>
  402362:	29 c3                	sub    %eax,%ebx
  402364:	85 db                	test   %ebx,%ebx
  402366:	75 d5                	jne    40233d <.text+0x21d>
  402368:	8b 54 24 2c          	mov    0x2c(%esp),%edx
  40236c:	8b 4c 24 28          	mov    0x28(%esp),%ecx
  402370:	8b 7c 24 24          	mov    0x24(%esp),%edi
  402374:	0f b6 52 02          	movzbl 0x2(%edx),%edx
  402378:	83 e1 20             	and    $0x20,%ecx
  40237b:	8d 47 01             	lea    0x1(%edi),%eax
  40237e:	80 fa 5d             	cmp    $0x5d,%dl
  402381:	0f 84 c3 fe ff ff    	je     40224a <.text+0x12a>
  402387:	80 fa 7f             	cmp    $0x7f,%dl
  40238a:	74 1f                	je     4023ab <.text+0x28b>
  40238c:	84 d2                	test   %dl,%dl
  40238e:	0f 84 b4 fe ff ff    	je     402248 <.text+0x128>
  402394:	0f b6 57 01          	movzbl 0x1(%edi),%edx
  402398:	89 c7                	mov    %eax,%edi
  40239a:	8d 47 01             	lea    0x1(%edi),%eax
  40239d:	80 fa 5d             	cmp    $0x5d,%dl
  4023a0:	0f 84 a4 fe ff ff    	je     40224a <.text+0x12a>
  4023a6:	80 fa 7f             	cmp    $0x7f,%dl
  4023a9:	75 e1                	jne    40238c <.text+0x26c>
  4023ab:	0f b6 57 01          	movzbl 0x1(%edi),%edx
  4023af:	85 c9                	test   %ecx,%ecx
  4023b1:	0f 85 89 00 00 00    	jne    402440 <.text+0x320>
  4023b7:	8d 5f 02             	lea    0x2(%edi),%ebx
  4023ba:	89 c7                	mov    %eax,%edi
  4023bc:	89 d8                	mov    %ebx,%eax
  4023be:	eb cc                	jmp    40238c <.text+0x26c>
  4023c0:	89 c7                	mov    %eax,%edi
  4023c2:	e9 00 ff ff ff       	jmp    4022c7 <.text+0x1a7>
  4023c7:	8d b4 26 00 00 00 00 	lea    0x0(%esi,%eiz,1),%esi
  4023ce:	66 90                	xchg   %ax,%ax
  4023d0:	8b 5c 24 28          	mov    0x28(%esp),%ebx
  4023d4:	83 e3 20             	and    $0x20,%ebx
  4023d7:	8d 42 01             	lea    0x1(%edx),%eax
  4023da:	80 f9 5d             	cmp    $0x5d,%cl
  4023dd:	0f 84 67 fe ff ff    	je     40224a <.text+0x12a>
  4023e3:	80 f9 7f             	cmp    $0x7f,%cl
  4023e6:	74 1f                	je     402407 <.text+0x2e7>
  4023e8:	84 c9                	test   %cl,%cl
  4023ea:	0f 84 58 fe ff ff    	je     402248 <.text+0x128>
  4023f0:	0f b6 4a 01          	movzbl 0x1(%edx),%ecx
  4023f4:	89 c2                	mov    %eax,%edx
  4023f6:	8d 42 01             	lea    0x1(%edx),%eax
  4023f9:	80 f9 5d             	cmp    $0x5d,%cl
  4023fc:	0f 84 48 fe ff ff    	je     40224a <.text+0x12a>
  402402:	80 f9 7f             	cmp    $0x7f,%cl
  402405:	75 e1                	jne    4023e8 <.text+0x2c8>
  402407:	0f b6 4a 01          	movzbl 0x1(%edx),%ecx
  40240b:	85 db                	test   %ebx,%ebx
  40240d:	75 11                	jne    402420 <.text+0x300>
  40240f:	8d 72 02             	lea    0x2(%edx),%esi
  402412:	89 c2                	mov    %eax,%edx
  402414:	89 f0                	mov    %esi,%eax
  402416:	eb d0                	jmp    4023e8 <.text+0x2c8>
  402418:	8d b4 26 00 00 00 00 	lea    0x0(%esi,%eiz,1),%esi
  40241f:	90                   	nop
  402420:	89 c2                	mov    %eax,%edx
  402422:	eb b3                	jmp    4023d7 <.text+0x2b7>
  402424:	8d 74 26 00          	lea    0x0(%esi,%eiz,1),%esi
  402428:	89 c2                	mov    %eax,%edx
  40242a:	e9 aa fd ff ff       	jmp    4021d9 <.text+0xb9>
  40242f:	90                   	nop
  402430:	89 fe                	mov    %edi,%esi
  402432:	8b 7c 24 24          	mov    0x24(%esp),%edi
  402436:	e9 4e fd ff ff       	jmp    402189 <.text+0x69>
  40243b:	8d 74 26 00          	lea    0x0(%esi,%eiz,1),%esi
  40243f:	90                   	nop
  402440:	89 c7                	mov    %eax,%edi
  402442:	e9 34 ff ff ff       	jmp    40237b <.text+0x25b>
  402447:	8d b4 26 00 00 00 00 	lea    0x0(%esi,%eiz,1),%esi
  40244e:	66 90                	xchg   %ax,%ax
  402450:	55                   	push   %ebp
  402451:	89 c5                	mov    %eax,%ebp
  402453:	57                   	push   %edi
  402454:	56                   	push   %esi
  402455:	89 d6                	mov    %edx,%esi
  402457:	53                   	push   %ebx
  402458:	83 ec 2c             	sub    $0x2c,%esp
  40245b:	0f b6 3a             	movzbl (%edx),%edi
  40245e:	0f be 10             	movsbl (%eax),%edx
  402461:	89 fb                	mov    %edi,%ebx
  402463:	89 d0                	mov    %edx,%eax
  402465:	80 fb 2e             	cmp    $0x2e,%bl
  402468:	0f 84 32 01 00 00    	je     4025a0 <.text+0x480>
  40246e:	8d 5d 01             	lea    0x1(%ebp),%ebx
  402471:	85 d2                	test   %edx,%edx
  402473:	0f 84 f9 00 00 00    	je     402572 <.text+0x452>
  402479:	89 cf                	mov    %ecx,%edi
  40247b:	83 e7 20             	and    $0x20,%edi
  40247e:	89 7c 24 14          	mov    %edi,0x14(%esp)
  402482:	89 f7                	mov    %esi,%edi
  402484:	3c 3f                	cmp    $0x3f,%al
  402486:	0f 84 f4 00 00 00    	je     402580 <.text+0x460>
  40248c:	3c 5b                	cmp    $0x5b,%al
  40248e:	0f 84 9c 00 00 00    	je     402530 <.text+0x410>
  402494:	3c 2a                	cmp    $0x2a,%al
  402496:	74 5b                	je     4024f3 <.text+0x3d3>
  402498:	f6 c1 20             	test   $0x20,%cl
  40249b:	75 09                	jne    4024a6 <.text+0x386>
  40249d:	83 fa 7f             	cmp    $0x7f,%edx
  4024a0:	0f 84 42 01 00 00    	je     4025e8 <.text+0x4c8>
  4024a6:	0f be 06             	movsbl (%esi),%eax
  4024a9:	84 c0                	test   %al,%al
  4024ab:	74 75                	je     402522 <.text+0x402>
  4024ad:	89 44 24 10          	mov    %eax,0x10(%esp)
  4024b1:	f6 c5 40             	test   $0x40,%ch
  4024b4:	0f 85 d6 00 00 00    	jne    402590 <.text+0x470>
  4024ba:	89 14 24             	mov    %edx,(%esp)
  4024bd:	89 4c 24 1c          	mov    %ecx,0x1c(%esp)
  4024c1:	89 54 24 18          	mov    %edx,0x18(%esp)
  4024c5:	e8 42 19 00 00       	call   403e0c <_tolower>
  4024ca:	89 c5                	mov    %eax,%ebp
  4024cc:	8b 44 24 10          	mov    0x10(%esp),%eax
  4024d0:	89 04 24             	mov    %eax,(%esp)
  4024d3:	e8 34 19 00 00       	call   403e0c <_tolower>
  4024d8:	8b 4c 24 1c          	mov    0x1c(%esp),%ecx
  4024dc:	8b 54 24 18          	mov    0x18(%esp),%edx
  4024e0:	29 c5                	sub    %eax,%ebp
  4024e2:	85 ed                	test   %ebp,%ebp
  4024e4:	0f 84 9f 00 00 00    	je     402589 <.text+0x469>
  4024ea:	2b 54 24 10          	sub    0x10(%esp),%edx
  4024ee:	eb 32                	jmp    402522 <.text+0x402>
  4024f0:	83 c3 01             	add    $0x1,%ebx
  4024f3:	0f b6 03             	movzbl (%ebx),%eax
  4024f6:	3c 2a                	cmp    $0x2a,%al
  4024f8:	74 f6                	je     4024f0 <.text+0x3d0>
  4024fa:	31 d2                	xor    %edx,%edx
  4024fc:	84 c0                	test   %al,%al
  4024fe:	74 22                	je     402522 <.text+0x402>
  402500:	89 ce                	mov    %ecx,%esi
  402502:	81 ce 00 00 01 00    	or     $0x10000,%esi
  402508:	89 f1                	mov    %esi,%ecx
  40250a:	89 fa                	mov    %edi,%edx
  40250c:	89 d8                	mov    %ebx,%eax
  40250e:	e8 3d ff ff ff       	call   402450 <.text+0x330>
  402513:	85 c0                	test   %eax,%eax
  402515:	74 09                	je     402520 <.text+0x400>
  402517:	83 c7 01             	add    $0x1,%edi
  40251a:	80 7f ff 00          	cmpb   $0x0,-0x1(%edi)
  40251e:	75 e8                	jne    402508 <.text+0x3e8>
  402520:	89 c2                	mov    %eax,%edx
  402522:	83 c4 2c             	add    $0x2c,%esp
  402525:	89 d0                	mov    %edx,%eax
  402527:	5b                   	pop    %ebx
  402528:	5e                   	pop    %esi
  402529:	5f                   	pop    %edi
  40252a:	5d                   	pop    %ebp
  40252b:	c3                   	ret    
  40252c:	8d 74 26 00          	lea    0x0(%esi,%eiz,1),%esi
  402530:	0f be 16             	movsbl (%esi),%edx
  402533:	85 d2                	test   %edx,%edx
  402535:	0f 84 32 01 00 00    	je     40266d <.text+0x54d>
  40253b:	80 7d 01 21          	cmpb   $0x21,0x1(%ebp)
  40253f:	74 7f                	je     4025c0 <.text+0x4a0>
  402541:	89 d8                	mov    %ebx,%eax
  402543:	89 4c 24 10          	mov    %ecx,0x10(%esp)
  402547:	e8 d4 fb ff ff       	call   402120 <.text>
  40254c:	89 c5                	mov    %eax,%ebp
  40254e:	85 c0                	test   %eax,%eax
  402550:	0f 84 03 01 00 00    	je     402659 <.text+0x539>
  402556:	0f b6 00             	movzbl (%eax),%eax
  402559:	8b 4c 24 10          	mov    0x10(%esp),%ecx
  40255d:	0f be d0             	movsbl %al,%edx
  402560:	8d 5d 01             	lea    0x1(%ebp),%ebx
  402563:	83 c6 01             	add    $0x1,%esi
  402566:	85 d2                	test   %edx,%edx
  402568:	0f 85 14 ff ff ff    	jne    402482 <.text+0x362>
  40256e:	0f b6 7f 01          	movzbl 0x1(%edi),%edi
  402572:	89 f8                	mov    %edi,%eax
  402574:	0f be d0             	movsbl %al,%edx
  402577:	f7 da                	neg    %edx
  402579:	eb a7                	jmp    402522 <.text+0x402>
  40257b:	8d 74 26 00          	lea    0x0(%esi,%eiz,1),%esi
  40257f:	90                   	nop
  402580:	80 3e 00             	cmpb   $0x0,(%esi)
  402583:	0f 84 da 00 00 00    	je     402663 <.text+0x543>
  402589:	0f b6 03             	movzbl (%ebx),%eax
  40258c:	89 dd                	mov    %ebx,%ebp
  40258e:	eb cd                	jmp    40255d <.text+0x43d>
  402590:	89 d5                	mov    %edx,%ebp
  402592:	29 c5                	sub    %eax,%ebp
  402594:	e9 49 ff ff ff       	jmp    4024e2 <.text+0x3c2>
  402599:	8d b4 26 00 00 00 00 	lea    0x0(%esi,%eiz,1),%esi
  4025a0:	80 fa 2e             	cmp    $0x2e,%dl
  4025a3:	74 5b                	je     402600 <.text+0x4e0>
  4025a5:	f7 c1 00 00 01 00    	test   $0x10000,%ecx
  4025ab:	0f 85 bd fe ff ff    	jne    40246e <.text+0x34e>
  4025b1:	83 ea 2e             	sub    $0x2e,%edx
  4025b4:	e9 69 ff ff ff       	jmp    402522 <.text+0x402>
  4025b9:	8d b4 26 00 00 00 00 	lea    0x0(%esi,%eiz,1),%esi
  4025c0:	8d 5d 02             	lea    0x2(%ebp),%ebx
  4025c3:	89 4c 24 10          	mov    %ecx,0x10(%esp)
  4025c7:	89 d8                	mov    %ebx,%eax
  4025c9:	e8 52 fb ff ff       	call   402120 <.text>
  4025ce:	8b 4c 24 10          	mov    0x10(%esp),%ecx
  4025d2:	89 c2                	mov    %eax,%edx
  4025d4:	0f b6 45 02          	movzbl 0x2(%ebp),%eax
  4025d8:	85 d2                	test   %edx,%edx
  4025da:	74 2c                	je     402608 <.text+0x4e8>
  4025dc:	89 dd                	mov    %ebx,%ebp
  4025de:	e9 7a ff ff ff       	jmp    40255d <.text+0x43d>
  4025e3:	8d 74 26 00          	lea    0x0(%esi,%eiz,1),%esi
  4025e7:	90                   	nop
  4025e8:	0f be 55 01          	movsbl 0x1(%ebp),%edx
  4025ec:	85 d2                	test   %edx,%edx
  4025ee:	0f 84 b2 fe ff ff    	je     4024a6 <.text+0x386>
  4025f4:	8d 5d 02             	lea    0x2(%ebp),%ebx
  4025f7:	e9 aa fe ff ff       	jmp    4024a6 <.text+0x386>
  4025fc:	8d 74 26 00          	lea    0x0(%esi,%eiz,1),%esi
  402600:	8d 5d 01             	lea    0x1(%ebp),%ebx
  402603:	e9 71 fe ff ff       	jmp    402479 <.text+0x359>
  402608:	3c 5d                	cmp    $0x5d,%al
  40260a:	75 0c                	jne    402618 <.text+0x4f8>
  40260c:	0f b6 45 03          	movzbl 0x3(%ebp),%eax
  402610:	8d 5d 03             	lea    0x3(%ebp),%ebx
  402613:	8d 74 26 00          	lea    0x0(%esi,%eiz,1),%esi
  402617:	90                   	nop
  402618:	8d 6b 01             	lea    0x1(%ebx),%ebp
  40261b:	3c 5d                	cmp    $0x5d,%al
  40261d:	74 15                	je     402634 <.text+0x514>
  40261f:	3c 7f                	cmp    $0x7f,%al
  402621:	74 1d                	je     402640 <.text+0x520>
  402623:	84 c0                	test   %al,%al
  402625:	74 32                	je     402659 <.text+0x539>
  402627:	0f b6 43 01          	movzbl 0x1(%ebx),%eax
  40262b:	89 eb                	mov    %ebp,%ebx
  40262d:	8d 6b 01             	lea    0x1(%ebx),%ebp
  402630:	3c 5d                	cmp    $0x5d,%al
  402632:	75 eb                	jne    40261f <.text+0x4ff>
  402634:	0f b6 43 01          	movzbl 0x1(%ebx),%eax
  402638:	e9 20 ff ff ff       	jmp    40255d <.text+0x43d>
  40263d:	8d 76 00             	lea    0x0(%esi),%esi
  402640:	8b 54 24 14          	mov    0x14(%esp),%edx
  402644:	0f b6 43 01          	movzbl 0x1(%ebx),%eax
  402648:	85 d2                	test   %edx,%edx
  40264a:	75 09                	jne    402655 <.text+0x535>
  40264c:	8d 53 02             	lea    0x2(%ebx),%edx
  40264f:	89 eb                	mov    %ebp,%ebx
  402651:	89 d5                	mov    %edx,%ebp
  402653:	eb ce                	jmp    402623 <.text+0x503>
  402655:	89 eb                	mov    %ebp,%ebx
  402657:	eb bf                	jmp    402618 <.text+0x4f8>
  402659:	ba 5d 00 00 00       	mov    $0x5d,%edx
  40265e:	e9 bf fe ff ff       	jmp    402522 <.text+0x402>
  402663:	ba 3f 00 00 00       	mov    $0x3f,%edx
  402668:	e9 b5 fe ff ff       	jmp    402522 <.text+0x402>
  40266d:	ba 5b 00 00 00       	mov    $0x5b,%edx
  402672:	e9 ab fe ff ff       	jmp    402522 <.text+0x402>
  402677:	8d b4 26 00 00 00 00 	lea    0x0(%esi,%eiz,1),%esi
  40267e:	66 90                	xchg   %ax,%ax
  402680:	57                   	push   %edi
  402681:	8d 48 01             	lea    0x1(%eax),%ecx
  402684:	56                   	push   %esi
  402685:	53                   	push   %ebx
  402686:	89 c3                	mov    %eax,%ebx
  402688:	0f be 00             	movsbl (%eax),%eax
  40268b:	85 c0                	test   %eax,%eax
  40268d:	74 61                	je     4026f0 <.text+0x5d0>
  40268f:	c1 ea 05             	shr    $0x5,%edx
  402692:	31 ff                	xor    %edi,%edi
  402694:	89 d6                	mov    %edx,%esi
  402696:	83 f6 01             	xor    $0x1,%esi
  402699:	83 e6 01             	and    $0x1,%esi
  40269c:	eb 23                	jmp    4026c1 <.text+0x5a1>
  40269e:	66 90                	xchg   %ax,%ax
  4026a0:	83 f8 2a             	cmp    $0x2a,%eax
  4026a3:	74 6b                	je     402710 <.text+0x5f0>
  4026a5:	83 f8 3f             	cmp    $0x3f,%eax
  4026a8:	74 66                	je     402710 <.text+0x5f0>
  4026aa:	83 f8 5b             	cmp    $0x5b,%eax
  4026ad:	89 cb                	mov    %ecx,%ebx
  4026af:	0f 94 c0             	sete   %al
  4026b2:	0f b6 c0             	movzbl %al,%eax
  4026b5:	89 c7                	mov    %eax,%edi
  4026b7:	0f be 03             	movsbl (%ebx),%eax
  4026ba:	83 c1 01             	add    $0x1,%ecx
  4026bd:	85 c0                	test   %eax,%eax
  4026bf:	74 2f                	je     4026f0 <.text+0x5d0>
  4026c1:	83 f8 7f             	cmp    $0x7f,%eax
  4026c4:	75 06                	jne    4026cc <.text+0x5ac>
  4026c6:	89 f2                	mov    %esi,%edx
  4026c8:	84 d2                	test   %dl,%dl
  4026ca:	75 2c                	jne    4026f8 <.text+0x5d8>
  4026cc:	85 ff                	test   %edi,%edi
  4026ce:	74 d0                	je     4026a0 <.text+0x580>
  4026d0:	83 ff 01             	cmp    $0x1,%edi
  4026d3:	7e 05                	jle    4026da <.text+0x5ba>
  4026d5:	83 f8 5d             	cmp    $0x5d,%eax
  4026d8:	74 36                	je     402710 <.text+0x5f0>
  4026da:	89 cb                	mov    %ecx,%ebx
  4026dc:	83 f8 21             	cmp    $0x21,%eax
  4026df:	74 d6                	je     4026b7 <.text+0x597>
  4026e1:	89 cb                	mov    %ecx,%ebx
  4026e3:	83 c7 01             	add    $0x1,%edi
  4026e6:	83 c1 01             	add    $0x1,%ecx
  4026e9:	0f be 03             	movsbl (%ebx),%eax
  4026ec:	85 c0                	test   %eax,%eax
  4026ee:	75 d1                	jne    4026c1 <.text+0x5a1>
  4026f0:	5b                   	pop    %ebx
  4026f1:	5e                   	pop    %esi
  4026f2:	5f                   	pop    %edi
  4026f3:	c3                   	ret    
  4026f4:	8d 74 26 00          	lea    0x0(%esi,%eiz,1),%esi
  4026f8:	80 7b 01 00          	cmpb   $0x0,0x1(%ebx)
  4026fc:	8d 4b 02             	lea    0x2(%ebx),%ecx
  4026ff:	74 18                	je     402719 <.text+0x5f9>
  402701:	85 ff                	test   %edi,%edi
  402703:	74 a5                	je     4026aa <.text+0x58a>
  402705:	eb da                	jmp    4026e1 <.text+0x5c1>
  402707:	8d b4 26 00 00 00 00 	lea    0x0(%esi,%eiz,1),%esi
  40270e:	66 90                	xchg   %ax,%ax
  402710:	5b                   	pop    %ebx
  402711:	b8 01 00 00 00       	mov    $0x1,%eax
  402716:	5e                   	pop    %esi
  402717:	5f                   	pop    %edi
  402718:	c3                   	ret    
  402719:	31 c0                	xor    %eax,%eax
  40271b:	eb d3                	jmp    4026f0 <.text+0x5d0>
  40271d:	8d 76 00             	lea    0x0(%esi),%esi
  402720:	57                   	push   %edi
  402721:	56                   	push   %esi
  402722:	89 c6                	mov    %eax,%esi
  402724:	53                   	push   %ebx
  402725:	89 d3                	mov    %edx,%ebx
  402727:	83 ec 10             	sub    $0x10,%esp
  40272a:	8b 42 0c             	mov    0xc(%edx),%eax
  40272d:	03 42 04             	add    0x4(%edx),%eax
  402730:	8d 04 85 08 00 00 00 	lea    0x8(,%eax,4),%eax
  402737:	89 44 24 04          	mov    %eax,0x4(%esp)
  40273b:	8b 42 08             	mov    0x8(%edx),%eax
  40273e:	89 04 24             	mov    %eax,(%esp)
  402741:	e8 1a 15 00 00       	call   403c60 <___mingw_realloc>
  402746:	85 c0                	test   %eax,%eax
  402748:	74 26                	je     402770 <.text+0x650>
  40274a:	8b 4b 04             	mov    0x4(%ebx),%ecx
  40274d:	8b 53 0c             	mov    0xc(%ebx),%edx
  402750:	89 43 08             	mov    %eax,0x8(%ebx)
  402753:	8d 79 01             	lea    0x1(%ecx),%edi
  402756:	01 d1                	add    %edx,%ecx
  402758:	01 fa                	add    %edi,%edx
  40275a:	89 7b 04             	mov    %edi,0x4(%ebx)
  40275d:	89 34 88             	mov    %esi,(%eax,%ecx,4)
  402760:	c7 04 90 00 00 00 00 	movl   $0x0,(%eax,%edx,4)
  402767:	83 c4 10             	add    $0x10,%esp
  40276a:	31 c0                	xor    %eax,%eax
  40276c:	5b                   	pop    %ebx
  40276d:	5e                   	pop    %esi
  40276e:	5f                   	pop    %edi
  40276f:	c3                   	ret    
  402770:	83 c4 10             	add    $0x10,%esp
  402773:	b8 01 00 00 00       	mov    $0x1,%eax
  402778:	5b                   	pop    %ebx
  402779:	5e                   	pop    %esi
  40277a:	5f                   	pop    %edi
  40277b:	c3                   	ret    
  40277c:	8d 74 26 00          	lea    0x0(%esi,%eiz,1),%esi
  402780:	56                   	push   %esi
  402781:	89 d6                	mov    %edx,%esi
  402783:	53                   	push   %ebx
  402784:	89 c3                	mov    %eax,%ebx
  402786:	83 ec 14             	sub    $0x14,%esp
  402789:	8b 00                	mov    (%eax),%eax
  40278b:	85 c0                	test   %eax,%eax
  40278d:	74 05                	je     402794 <.text+0x674>
  40278f:	e8 ec ff ff ff       	call   402780 <.text+0x660>
  402794:	8b 43 08             	mov    0x8(%ebx),%eax
  402797:	85 c0                	test   %eax,%eax
  402799:	74 04                	je     40279f <.text+0x67f>
  40279b:	85 f6                	test   %esi,%esi
  40279d:	75 21                	jne    4027c0 <.text+0x6a0>
  40279f:	8b 43 04             	mov    0x4(%ebx),%eax
  4027a2:	85 c0                	test   %eax,%eax
  4027a4:	74 07                	je     4027ad <.text+0x68d>
  4027a6:	89 f2                	mov    %esi,%edx
  4027a8:	e8 d3 ff ff ff       	call   402780 <.text+0x660>
  4027ad:	89 1c 24             	mov    %ebx,(%esp)
  4027b0:	e8 3b f9 ff ff       	call   4020f0 <___mingw_aligned_free>
  4027b5:	83 c4 14             	add    $0x14,%esp
  4027b8:	5b                   	pop    %ebx
  4027b9:	5e                   	pop    %esi
  4027ba:	c3                   	ret    
  4027bb:	8d 74 26 00          	lea    0x0(%esi,%eiz,1),%esi
  4027bf:	90                   	nop
  4027c0:	89 f2                	mov    %esi,%edx
  4027c2:	e8 59 ff ff ff       	call   402720 <.text+0x600>
  4027c7:	eb d6                	jmp    40279f <.text+0x67f>
  4027c9:	8d b4 26 00 00 00 00 	lea    0x0(%esi,%eiz,1),%esi
  4027d0:	56                   	push   %esi
  4027d1:	89 c6                	mov    %eax,%esi
  4027d3:	53                   	push   %ebx
  4027d4:	83 ec 14             	sub    $0x14,%esp
  4027d7:	8b 40 0c             	mov    0xc(%eax),%eax
  4027da:	8d 58 01             	lea    0x1(%eax),%ebx
  4027dd:	8d 04 9d 00 00 00 00 	lea    0x0(,%ebx,4),%eax
  4027e4:	89 04 24             	mov    %eax,(%esp)
  4027e7:	e8 68 16 00 00       	call   403e54 <_malloc>
  4027ec:	89 46 08             	mov    %eax,0x8(%esi)
  4027ef:	85 c0                	test   %eax,%eax
  4027f1:	74 21                	je     402814 <.text+0x6f4>
  4027f3:	c7 46 04 00 00 00 00 	movl   $0x0,0x4(%esi)
  4027fa:	85 db                	test   %ebx,%ebx
  4027fc:	7e 0e                	jle    40280c <.text+0x6ec>
  4027fe:	66 90                	xchg   %ax,%ax
  402800:	83 eb 01             	sub    $0x1,%ebx
  402803:	c7 04 98 00 00 00 00 	movl   $0x0,(%eax,%ebx,4)
  40280a:	75 f4                	jne    402800 <.text+0x6e0>
  40280c:	31 c0                	xor    %eax,%eax
  40280e:	83 c4 14             	add    $0x14,%esp
  402811:	5b                   	pop    %ebx
  402812:	5e                   	pop    %esi
  402813:	c3                   	ret    
  402814:	b8 03 00 00 00       	mov    $0x3,%eax
  402819:	eb f3                	jmp    40280e <.text+0x6ee>
  40281b:	8d 74 26 00          	lea    0x0(%esi,%eiz,1),%esi
  40281f:	90                   	nop
  402820:	55                   	push   %ebp
  402821:	89 e5                	mov    %esp,%ebp
  402823:	57                   	push   %edi
  402824:	56                   	push   %esi
  402825:	53                   	push   %ebx
  402826:	83 ec 6c             	sub    $0x6c,%esp
  402829:	89 45 c4             	mov    %eax,-0x3c(%ebp)
  40282c:	89 55 d0             	mov    %edx,-0x30(%ebp)
  40282f:	89 4d c8             	mov    %ecx,-0x38(%ebp)
  402832:	80 e6 04             	and    $0x4,%dh
  402835:	0f 85 3d 01 00 00    	jne    402978 <.text+0x858>
  40283b:	8b 7d c4             	mov    -0x3c(%ebp),%edi
  40283e:	89 65 bc             	mov    %esp,-0x44(%ebp)
  402841:	89 3c 24             	mov    %edi,(%esp)
  402844:	e8 cb 15 00 00       	call   403e14 <_strlen>
  402849:	8d 50 01             	lea    0x1(%eax),%edx
  40284c:	83 c0 10             	add    $0x10,%eax
  40284f:	c1 e8 04             	shr    $0x4,%eax
  402852:	c1 e0 04             	shl    $0x4,%eax
  402855:	e8 66 15 00 00       	call   403dc0 <___chkstk_ms>
  40285a:	29 c4                	sub    %eax,%esp
  40285c:	8d 44 24 0c          	lea    0xc(%esp),%eax
  402860:	89 54 24 08          	mov    %edx,0x8(%esp)
  402864:	89 7c 24 04          	mov    %edi,0x4(%esp)
  402868:	89 04 24             	mov    %eax,(%esp)
  40286b:	e8 d4 15 00 00       	call   403e44 <_memcpy>
  402870:	89 04 24             	mov    %eax,(%esp)
  402873:	e8 a8 09 00 00       	call   403220 <___mingw_dirname>
  402878:	c7 45 e4 00 00 00 00 	movl   $0x0,-0x1c(%ebp)
  40287f:	89 45 c0             	mov    %eax,-0x40(%ebp)
  402882:	89 c7                	mov    %eax,%edi
  402884:	8d 45 d8             	lea    -0x28(%ebp),%eax
  402887:	e8 44 ff ff ff       	call   4027d0 <.text+0x6b0>
  40288c:	89 45 d4             	mov    %eax,-0x2c(%ebp)
  40288f:	85 c0                	test   %eax,%eax
  402891:	0f 85 81 03 00 00    	jne    402c18 <.text+0xaf8>
  402897:	85 ff                	test   %edi,%edi
  402899:	74 12                	je     4028ad <.text+0x78d>
  40289b:	8b 55 d0             	mov    -0x30(%ebp),%edx
  40289e:	89 f8                	mov    %edi,%eax
  4028a0:	e8 db fd ff ff       	call   402680 <.text+0x560>
  4028a5:	85 c0                	test   %eax,%eax
  4028a7:	0f 85 f9 05 00 00    	jne    402ea6 <.text+0xd86>
  4028ad:	8b 75 c0             	mov    -0x40(%ebp),%esi
  4028b0:	89 e3                	mov    %esp,%ebx
  4028b2:	89 34 24             	mov    %esi,(%esp)
  4028b5:	e8 5a 15 00 00       	call   403e14 <_strlen>
  4028ba:	83 c0 10             	add    $0x10,%eax
  4028bd:	c1 e8 04             	shr    $0x4,%eax
  4028c0:	c1 e0 04             	shl    $0x4,%eax
  4028c3:	e8 f8 14 00 00       	call   403dc0 <___chkstk_ms>
  4028c8:	29 c4                	sub    %eax,%esp
  4028ca:	89 f2                	mov    %esi,%edx
  4028cc:	8d 7c 24 0c          	lea    0xc(%esp),%edi
  4028d0:	89 f9                	mov    %edi,%ecx
  4028d2:	eb 10                	jmp    4028e4 <.text+0x7c4>
  4028d4:	8d 74 26 00          	lea    0x0(%esi,%eiz,1),%esi
  4028d8:	83 c1 01             	add    $0x1,%ecx
  4028db:	89 f2                	mov    %esi,%edx
  4028dd:	88 41 ff             	mov    %al,-0x1(%ecx)
  4028e0:	84 c0                	test   %al,%al
  4028e2:	74 1b                	je     4028ff <.text+0x7df>
  4028e4:	0f b6 02             	movzbl (%edx),%eax
  4028e7:	8d 72 01             	lea    0x1(%edx),%esi
  4028ea:	3c 7f                	cmp    $0x7f,%al
  4028ec:	75 ea                	jne    4028d8 <.text+0x7b8>
  4028ee:	0f b6 42 01          	movzbl 0x1(%edx),%eax
  4028f2:	83 c1 01             	add    $0x1,%ecx
  4028f5:	83 c2 02             	add    $0x2,%edx
  4028f8:	88 41 ff             	mov    %al,-0x1(%ecx)
  4028fb:	84 c0                	test   %al,%al
  4028fd:	75 e5                	jne    4028e4 <.text+0x7c4>
  4028ff:	89 3c 24             	mov    %edi,(%esp)
  402902:	e8 ed 14 00 00       	call   403df4 <_strdup>
  402907:	c7 45 d4 01 00 00 00 	movl   $0x1,-0x2c(%ebp)
  40290e:	89 dc                	mov    %ebx,%esp
  402910:	85 c0                	test   %eax,%eax
  402912:	0f 84 00 03 00 00    	je     402c18 <.text+0xaf8>
  402918:	8d 55 d8             	lea    -0x28(%ebp),%edx
  40291b:	e8 00 fe ff ff       	call   402720 <.text+0x600>
  402920:	89 45 d4             	mov    %eax,-0x2c(%ebp)
  402923:	8b 4d d4             	mov    -0x2c(%ebp),%ecx
  402926:	85 c9                	test   %ecx,%ecx
  402928:	0f 85 ea 02 00 00    	jne    402c18 <.text+0xaf8>
  40292e:	8b 5d c4             	mov    -0x3c(%ebp),%ebx
  402931:	0f b6 43 01          	movzbl 0x1(%ebx),%eax
  402935:	3c 2f                	cmp    $0x2f,%al
  402937:	0f 84 33 03 00 00    	je     402c70 <.text+0xb50>
  40293d:	3c 5c                	cmp    $0x5c,%al
  40293f:	0f 84 2b 03 00 00    	je     402c70 <.text+0xb50>
  402945:	8b 45 c0             	mov    -0x40(%ebp),%eax
  402948:	80 38 2e             	cmpb   $0x2e,(%eax)
  40294b:	0f 85 1f 03 00 00    	jne    402c70 <.text+0xb50>
  402951:	80 78 01 00          	cmpb   $0x0,0x1(%eax)
  402955:	0f 85 15 03 00 00    	jne    402c70 <.text+0xb50>
  40295b:	f6 45 d0 10          	testb  $0x10,-0x30(%ebp)
  40295f:	0f 85 af 06 00 00    	jne    403014 <.text+0xef4>
  402965:	c6 45 9f 5c          	movb   $0x5c,-0x61(%ebp)
  402969:	c7 45 c0 00 00 00 00 	movl   $0x0,-0x40(%ebp)
  402970:	e9 4e 03 00 00       	jmp    402cc3 <.text+0xba3>
  402975:	8d 76 00             	lea    0x0(%esi),%esi
  402978:	89 65 b8             	mov    %esp,-0x48(%ebp)
  40297b:	89 c6                	mov    %eax,%esi
  40297d:	89 04 24             	mov    %eax,(%esp)
  402980:	e8 8f 14 00 00       	call   403e14 <_strlen>
  402985:	83 c0 10             	add    $0x10,%eax
  402988:	c1 e8 04             	shr    $0x4,%eax
  40298b:	c1 e0 04             	shl    $0x4,%eax
  40298e:	e8 2d 14 00 00       	call   403dc0 <___chkstk_ms>
  402993:	0f b6 1e             	movzbl (%esi),%ebx
  402996:	29 c4                	sub    %eax,%esp
  402998:	8d 7c 24 0c          	lea    0xc(%esp),%edi
  40299c:	89 7d bc             	mov    %edi,-0x44(%ebp)
  40299f:	8d 4e 01             	lea    0x1(%esi),%ecx
  4029a2:	80 fb 7f             	cmp    $0x7f,%bl
  4029a5:	74 22                	je     4029c9 <.text+0x8a9>
  4029a7:	80 fb 7b             	cmp    $0x7b,%bl
  4029aa:	74 44                	je     4029f0 <.text+0x8d0>
  4029ac:	88 1f                	mov    %bl,(%edi)
  4029ae:	8d 47 01             	lea    0x1(%edi),%eax
  4029b1:	84 db                	test   %bl,%bl
  4029b3:	0f 84 99 02 00 00    	je     402c52 <.text+0xb32>
  4029b9:	0f b6 5e 01          	movzbl 0x1(%esi),%ebx
  4029bd:	89 ce                	mov    %ecx,%esi
  4029bf:	89 c7                	mov    %eax,%edi
  4029c1:	8d 4e 01             	lea    0x1(%esi),%ecx
  4029c4:	80 fb 7f             	cmp    $0x7f,%bl
  4029c7:	75 de                	jne    4029a7 <.text+0x887>
  4029c9:	0f b6 5e 01          	movzbl 0x1(%esi),%ebx
  4029cd:	c6 07 7f             	movb   $0x7f,(%edi)
  4029d0:	84 db                	test   %bl,%bl
  4029d2:	75 0c                	jne    4029e0 <.text+0x8c0>
  4029d4:	8d 46 02             	lea    0x2(%esi),%eax
  4029d7:	83 c7 01             	add    $0x1,%edi
  4029da:	89 ce                	mov    %ecx,%esi
  4029dc:	89 c1                	mov    %eax,%ecx
  4029de:	eb cc                	jmp    4029ac <.text+0x88c>
  4029e0:	88 5f 01             	mov    %bl,0x1(%edi)
  4029e3:	83 c6 02             	add    $0x2,%esi
  4029e6:	0f b6 1e             	movzbl (%esi),%ebx
  4029e9:	83 c7 02             	add    $0x2,%edi
  4029ec:	eb b1                	jmp    40299f <.text+0x87f>
  4029ee:	66 90                	xchg   %ax,%ax
  4029f0:	0f b6 5e 01          	movzbl 0x1(%esi),%ebx
  4029f4:	89 f2                	mov    %esi,%edx
  4029f6:	89 75 c0             	mov    %esi,-0x40(%ebp)
  4029f9:	89 4d d4             	mov    %ecx,-0x2c(%ebp)
  4029fc:	8d 72 01             	lea    0x1(%edx),%esi
  4029ff:	b9 01 00 00 00       	mov    $0x1,%ecx
  402a04:	89 d8                	mov    %ebx,%eax
  402a06:	c7 45 cc 2c 00 00 00 	movl   $0x2c,-0x34(%ebp)
  402a0d:	3c 7b                	cmp    $0x7b,%al
  402a0f:	74 2b                	je     402a3c <.text+0x91c>
  402a11:	8d b4 26 00 00 00 00 	lea    0x0(%esi,%eiz,1),%esi
  402a18:	7f 36                	jg     402a50 <.text+0x930>
  402a1a:	84 c0                	test   %al,%al
  402a1c:	0f 84 1e 01 00 00    	je     402b40 <.text+0xa20>
  402a22:	3c 2c                	cmp    $0x2c,%al
  402a24:	75 09                	jne    402a2f <.text+0x90f>
  402a26:	83 f9 01             	cmp    $0x1,%ecx
  402a29:	0f 84 11 02 00 00    	je     402c40 <.text+0xb20>
  402a2f:	0f b6 42 02          	movzbl 0x2(%edx),%eax
  402a33:	89 f2                	mov    %esi,%edx
  402a35:	8d 72 01             	lea    0x1(%edx),%esi
  402a38:	3c 7b                	cmp    $0x7b,%al
  402a3a:	75 dc                	jne    402a18 <.text+0x8f8>
  402a3c:	0f b6 42 02          	movzbl 0x2(%edx),%eax
  402a40:	83 c1 01             	add    $0x1,%ecx
  402a43:	89 f2                	mov    %esi,%edx
  402a45:	eb ee                	jmp    402a35 <.text+0x915>
  402a47:	8d b4 26 00 00 00 00 	lea    0x0(%esi,%eiz,1),%esi
  402a4e:	66 90                	xchg   %ax,%ax
  402a50:	3c 7d                	cmp    $0x7d,%al
  402a52:	0f 85 18 01 00 00    	jne    402b70 <.text+0xa50>
  402a58:	83 e9 01             	sub    $0x1,%ecx
  402a5b:	75 d2                	jne    402a2f <.text+0x90f>
  402a5d:	83 7d cc 7b          	cmpl   $0x7b,-0x34(%ebp)
  402a61:	8b 75 c0             	mov    -0x40(%ebp),%esi
  402a64:	8b 4d d4             	mov    -0x2c(%ebp),%ecx
  402a67:	0f 85 d6 00 00 00    	jne    402b43 <.text+0xa23>
  402a6d:	89 7d d4             	mov    %edi,-0x2c(%ebp)
  402a70:	8b 7d d0             	mov    -0x30(%ebp),%edi
  402a73:	8b 45 d4             	mov    -0x2c(%ebp),%eax
  402a76:	ba 01 00 00 00       	mov    $0x1,%edx
  402a7b:	80 fb 7f             	cmp    $0x7f,%bl
  402a7e:	0f 84 98 00 00 00    	je     402b1c <.text+0x9fc>
  402a84:	8d 74 26 00          	lea    0x0(%esi,%eiz,1),%esi
  402a88:	83 c6 01             	add    $0x1,%esi
  402a8b:	89 c1                	mov    %eax,%ecx
  402a8d:	80 fb 7d             	cmp    $0x7d,%bl
  402a90:	74 6e                	je     402b00 <.text+0x9e0>
  402a92:	80 fb 2c             	cmp    $0x2c,%bl
  402a95:	0f 85 b5 00 00 00    	jne    402b50 <.text+0xa30>
  402a9b:	83 fa 01             	cmp    $0x1,%edx
  402a9e:	0f 85 ac 00 00 00    	jne    402b50 <.text+0xa30>
  402aa4:	89 f2                	mov    %esi,%edx
  402aa6:	bb 01 00 00 00       	mov    $0x1,%ebx
  402aab:	8d 74 26 00          	lea    0x0(%esi,%eiz,1),%esi
  402aaf:	90                   	nop
  402ab0:	8d 42 01             	lea    0x1(%edx),%eax
  402ab3:	0f b6 52 01          	movzbl 0x1(%edx),%edx
  402ab7:	80 fa 7f             	cmp    $0x7f,%dl
  402aba:	74 1c                	je     402ad8 <.text+0x9b8>
  402abc:	e9 ef 00 00 00       	jmp    402bb0 <.text+0xa90>
  402ac1:	8d b4 26 00 00 00 00 	lea    0x0(%esi,%eiz,1),%esi
  402ac8:	0f b6 50 02          	movzbl 0x2(%eax),%edx
  402acc:	83 c0 02             	add    $0x2,%eax
  402acf:	80 fa 7f             	cmp    $0x7f,%dl
  402ad2:	0f 85 d8 00 00 00    	jne    402bb0 <.text+0xa90>
  402ad8:	80 78 01 00          	cmpb   $0x0,0x1(%eax)
  402adc:	75 ea                	jne    402ac8 <.text+0x9a8>
  402ade:	c6 01 00             	movb   $0x0,(%ecx)
  402ae1:	c7 45 d4 01 00 00 00 	movl   $0x1,-0x2c(%ebp)
  402ae8:	8b 65 b8             	mov    -0x48(%ebp),%esp
  402aeb:	8b 45 d4             	mov    -0x2c(%ebp),%eax
  402aee:	8d 65 f4             	lea    -0xc(%ebp),%esp
  402af1:	5b                   	pop    %ebx
  402af2:	5e                   	pop    %esi
  402af3:	5f                   	pop    %edi
  402af4:	5d                   	pop    %ebp
  402af5:	c3                   	ret    
  402af6:	8d b4 26 00 00 00 00 	lea    0x0(%esi,%eiz,1),%esi
  402afd:	8d 76 00             	lea    0x0(%esi),%esi
  402b00:	83 ea 01             	sub    $0x1,%edx
  402b03:	0f 84 c7 00 00 00    	je     402bd0 <.text+0xab0>
  402b09:	c6 01 7d             	movb   $0x7d,(%ecx)
  402b0c:	8d 41 01             	lea    0x1(%ecx),%eax
  402b0f:	0f b6 5e 01          	movzbl 0x1(%esi),%ebx
  402b13:	80 fb 7f             	cmp    $0x7f,%bl
  402b16:	0f 85 6c ff ff ff    	jne    402a88 <.text+0x968>
  402b1c:	0f b6 5e 02          	movzbl 0x2(%esi),%ebx
  402b20:	c6 00 7f             	movb   $0x7f,(%eax)
  402b23:	8d 48 02             	lea    0x2(%eax),%ecx
  402b26:	88 58 01             	mov    %bl,0x1(%eax)
  402b29:	84 db                	test   %bl,%bl
  402b2b:	74 6b                	je     402b98 <.text+0xa78>
  402b2d:	0f b6 5e 03          	movzbl 0x3(%esi),%ebx
  402b31:	83 c6 03             	add    $0x3,%esi
  402b34:	e9 54 ff ff ff       	jmp    402a8d <.text+0x96d>
  402b39:	8d b4 26 00 00 00 00 	lea    0x0(%esi,%eiz,1),%esi
  402b40:	8b 4d d4             	mov    -0x2c(%ebp),%ecx
  402b43:	c6 07 7b             	movb   $0x7b,(%edi)
  402b46:	89 ce                	mov    %ecx,%esi
  402b48:	83 c7 01             	add    $0x1,%edi
  402b4b:	e9 4f fe ff ff       	jmp    40299f <.text+0x87f>
  402b50:	8d 41 01             	lea    0x1(%ecx),%eax
  402b53:	80 fb 7b             	cmp    $0x7b,%bl
  402b56:	75 08                	jne    402b60 <.text+0xa40>
  402b58:	c6 01 7b             	movb   $0x7b,(%ecx)
  402b5b:	83 c2 01             	add    $0x1,%edx
  402b5e:	eb af                	jmp    402b0f <.text+0x9ef>
  402b60:	88 19                	mov    %bl,(%ecx)
  402b62:	84 db                	test   %bl,%bl
  402b64:	75 a9                	jne    402b0f <.text+0x9ef>
  402b66:	eb 34                	jmp    402b9c <.text+0xa7c>
  402b68:	8d b4 26 00 00 00 00 	lea    0x0(%esi,%eiz,1),%esi
  402b6f:	90                   	nop
  402b70:	3c 7f                	cmp    $0x7f,%al
  402b72:	0f 85 b7 fe ff ff    	jne    402a2f <.text+0x90f>
  402b78:	0f b6 42 02          	movzbl 0x2(%edx),%eax
  402b7c:	84 c0                	test   %al,%al
  402b7e:	0f 84 af fe ff ff    	je     402a33 <.text+0x913>
  402b84:	8d 72 02             	lea    0x2(%edx),%esi
  402b87:	0f b6 42 03          	movzbl 0x3(%edx),%eax
  402b8b:	89 f2                	mov    %esi,%edx
  402b8d:	e9 a3 fe ff ff       	jmp    402a35 <.text+0x915>
  402b92:	8d b6 00 00 00 00    	lea    0x0(%esi),%esi
  402b98:	c6 40 02 00          	movb   $0x0,0x2(%eax)
  402b9c:	c7 45 d4 01 00 00 00 	movl   $0x1,-0x2c(%ebp)
  402ba3:	e9 40 ff ff ff       	jmp    402ae8 <.text+0x9c8>
  402ba8:	8d b4 26 00 00 00 00 	lea    0x0(%esi,%eiz,1),%esi
  402baf:	90                   	nop
  402bb0:	80 fa 7b             	cmp    $0x7b,%dl
  402bb3:	74 7b                	je     402c30 <.text+0xb10>
  402bb5:	80 fa 7d             	cmp    $0x7d,%dl
  402bb8:	0f 84 a2 00 00 00    	je     402c60 <.text+0xb40>
  402bbe:	84 d2                	test   %dl,%dl
  402bc0:	0f 84 18 ff ff ff    	je     402ade <.text+0x9be>
  402bc6:	89 c2                	mov    %eax,%edx
  402bc8:	e9 e3 fe ff ff       	jmp    402ab0 <.text+0x990>
  402bcd:	8d 76 00             	lea    0x0(%esi),%esi
  402bd0:	89 f0                	mov    %esi,%eax
  402bd2:	83 c0 01             	add    $0x1,%eax
  402bd5:	8d 76 00             	lea    0x0(%esi),%esi
  402bd8:	0f b6 10             	movzbl (%eax),%edx
  402bdb:	83 c1 01             	add    $0x1,%ecx
  402bde:	83 c0 01             	add    $0x1,%eax
  402be1:	88 51 ff             	mov    %dl,-0x1(%ecx)
  402be4:	84 d2                	test   %dl,%dl
  402be6:	75 f0                	jne    402bd8 <.text+0xab8>
  402be8:	8b 45 08             	mov    0x8(%ebp),%eax
  402beb:	89 fa                	mov    %edi,%edx
  402bed:	83 cf 01             	or     $0x1,%edi
  402bf0:	89 04 24             	mov    %eax,(%esp)
  402bf3:	8b 4d c8             	mov    -0x38(%ebp),%ecx
  402bf6:	8b 45 bc             	mov    -0x44(%ebp),%eax
  402bf9:	e8 22 fc ff ff       	call   402820 <.text+0x700>
  402bfe:	83 f8 01             	cmp    $0x1,%eax
  402c01:	74 99                	je     402b9c <.text+0xa7c>
  402c03:	80 3e 2c             	cmpb   $0x2c,(%esi)
  402c06:	0f 85 92 02 00 00    	jne    402e9e <.text+0xd7e>
  402c0c:	0f b6 5e 01          	movzbl 0x1(%esi),%ebx
  402c10:	e9 5e fe ff ff       	jmp    402a73 <.text+0x953>
  402c15:	8d 76 00             	lea    0x0(%esi),%esi
  402c18:	8b 45 d4             	mov    -0x2c(%ebp),%eax
  402c1b:	8b 65 bc             	mov    -0x44(%ebp),%esp
  402c1e:	8d 65 f4             	lea    -0xc(%ebp),%esp
  402c21:	5b                   	pop    %ebx
  402c22:	5e                   	pop    %esi
  402c23:	5f                   	pop    %edi
  402c24:	5d                   	pop    %ebp
  402c25:	c3                   	ret    
  402c26:	8d b4 26 00 00 00 00 	lea    0x0(%esi,%eiz,1),%esi
  402c2d:	8d 76 00             	lea    0x0(%esi),%esi
  402c30:	83 c3 01             	add    $0x1,%ebx
  402c33:	89 c2                	mov    %eax,%edx
  402c35:	e9 76 fe ff ff       	jmp    402ab0 <.text+0x990>
  402c3a:	8d b6 00 00 00 00    	lea    0x0(%esi),%esi
  402c40:	0f b6 42 02          	movzbl 0x2(%edx),%eax
  402c44:	c7 45 cc 7b 00 00 00 	movl   $0x7b,-0x34(%ebp)
  402c4b:	89 f2                	mov    %esi,%edx
  402c4d:	e9 e3 fd ff ff       	jmp    402a35 <.text+0x915>
  402c52:	8b 65 b8             	mov    -0x48(%ebp),%esp
  402c55:	e9 e1 fb ff ff       	jmp    40283b <.text+0x71b>
  402c5a:	8d b6 00 00 00 00    	lea    0x0(%esi),%esi
  402c60:	83 eb 01             	sub    $0x1,%ebx
  402c63:	0f 84 69 ff ff ff    	je     402bd2 <.text+0xab2>
  402c69:	89 c2                	mov    %eax,%edx
  402c6b:	e9 40 fe ff ff       	jmp    402ab0 <.text+0x990>
  402c70:	8b 45 c0             	mov    -0x40(%ebp),%eax
  402c73:	89 04 24             	mov    %eax,(%esp)
  402c76:	e8 99 11 00 00       	call   403e14 <_strlen>
  402c7b:	8b 7d c4             	mov    -0x3c(%ebp),%edi
  402c7e:	8b 55 c4             	mov    -0x3c(%ebp),%edx
  402c81:	8d 1c 07             	lea    (%edi,%eax,1),%ebx
  402c84:	0f b6 03             	movzbl (%ebx),%eax
  402c87:	39 df                	cmp    %ebx,%edi
  402c89:	73 17                	jae    402ca2 <.text+0xb82>
  402c8b:	8d 74 26 00          	lea    0x0(%esi,%eiz,1),%esi
  402c8f:	90                   	nop
  402c90:	3c 2f                	cmp    $0x2f,%al
  402c92:	74 1c                	je     402cb0 <.text+0xb90>
  402c94:	3c 5c                	cmp    $0x5c,%al
  402c96:	74 0a                	je     402ca2 <.text+0xb82>
  402c98:	83 eb 01             	sub    $0x1,%ebx
  402c9b:	0f b6 03             	movzbl (%ebx),%eax
  402c9e:	39 da                	cmp    %ebx,%edx
  402ca0:	75 ee                	jne    402c90 <.text+0xb70>
  402ca2:	3c 2f                	cmp    $0x2f,%al
  402ca4:	74 0a                	je     402cb0 <.text+0xb90>
  402ca6:	3c 5c                	cmp    $0x5c,%al
  402ca8:	74 06                	je     402cb0 <.text+0xb90>
  402caa:	c6 45 9f 5c          	movb   $0x5c,-0x61(%ebp)
  402cae:	eb 13                	jmp    402cc3 <.text+0xba3>
  402cb0:	83 c3 01             	add    $0x1,%ebx
  402cb3:	89 c2                	mov    %eax,%edx
  402cb5:	0f b6 03             	movzbl (%ebx),%eax
  402cb8:	3c 2f                	cmp    $0x2f,%al
  402cba:	74 f4                	je     402cb0 <.text+0xb90>
  402cbc:	3c 5c                	cmp    $0x5c,%al
  402cbe:	74 f0                	je     402cb0 <.text+0xb90>
  402cc0:	88 55 9f             	mov    %dl,-0x61(%ebp)
  402cc3:	8b 7d e0             	mov    -0x20(%ebp),%edi
  402cc6:	c7 45 d4 02 00 00 00 	movl   $0x2,-0x2c(%ebp)
  402ccd:	8b 07                	mov    (%edi),%eax
  402ccf:	85 c0                	test   %eax,%eax
  402cd1:	0f 84 36 02 00 00    	je     402f0d <.text+0xded>
  402cd7:	8b 4d d0             	mov    -0x30(%ebp),%ecx
  402cda:	89 5d b8             	mov    %ebx,-0x48(%ebp)
  402cdd:	89 fb                	mov    %edi,%ebx
  402cdf:	81 e1 00 80 00 00    	and    $0x8000,%ecx
  402ce5:	89 4d c4             	mov    %ecx,-0x3c(%ebp)
  402ce8:	eb 4c                	jmp    402d36 <.text+0xc16>
  402cea:	8d b6 00 00 00 00    	lea    0x0(%esi),%esi
  402cf0:	f6 45 d0 04          	testb  $0x4,-0x30(%ebp)
  402cf4:	75 22                	jne    402d18 <.text+0xbf8>
  402cf6:	8b 7d c8             	mov    -0x38(%ebp),%edi
  402cf9:	85 ff                	test   %edi,%edi
  402cfb:	74 22                	je     402d1f <.text+0xbff>
  402cfd:	e8 92 11 00 00       	call   403e94 <__errno>
  402d02:	8b 00                	mov    (%eax),%eax
  402d04:	89 44 24 04          	mov    %eax,0x4(%esp)
  402d08:	8b 03                	mov    (%ebx),%eax
  402d0a:	89 04 24             	mov    %eax,(%esp)
  402d0d:	ff d7                	call   *%edi
  402d0f:	85 c0                	test   %eax,%eax
  402d11:	74 0c                	je     402d1f <.text+0xbff>
  402d13:	8d 74 26 00          	lea    0x0(%esi,%eiz,1),%esi
  402d17:	90                   	nop
  402d18:	c7 45 d4 01 00 00 00 	movl   $0x1,-0x2c(%ebp)
  402d1f:	8b 03                	mov    (%ebx),%eax
  402d21:	83 c3 04             	add    $0x4,%ebx
  402d24:	89 04 24             	mov    %eax,(%esp)
  402d27:	e8 c4 f3 ff ff       	call   4020f0 <___mingw_aligned_free>
  402d2c:	8b 03                	mov    (%ebx),%eax
  402d2e:	85 c0                	test   %eax,%eax
  402d30:	0f 84 e7 01 00 00    	je     402f1d <.text+0xdfd>
  402d36:	83 7d d4 01          	cmpl   $0x1,-0x2c(%ebp)
  402d3a:	74 dc                	je     402d18 <.text+0xbf8>
  402d3c:	89 04 24             	mov    %eax,(%esp)
  402d3f:	e8 ac 0a 00 00       	call   4037f0 <___mingw_opendir>
  402d44:	89 45 cc             	mov    %eax,-0x34(%ebp)
  402d47:	85 c0                	test   %eax,%eax
  402d49:	74 a5                	je     402cf0 <.text+0xbd0>
  402d4b:	8b 45 c0             	mov    -0x40(%ebp),%eax
  402d4e:	c7 45 b4 00 00 00 00 	movl   $0x0,-0x4c(%ebp)
  402d55:	85 c0                	test   %eax,%eax
  402d57:	74 0d                	je     402d66 <.text+0xc46>
  402d59:	8b 03                	mov    (%ebx),%eax
  402d5b:	89 04 24             	mov    %eax,(%esp)
  402d5e:	e8 b1 10 00 00       	call   403e14 <_strlen>
  402d63:	89 45 b4             	mov    %eax,-0x4c(%ebp)
  402d66:	8b 45 b4             	mov    -0x4c(%ebp),%eax
  402d69:	c7 45 b0 00 00 00 00 	movl   $0x0,-0x50(%ebp)
  402d70:	83 c0 02             	add    $0x2,%eax
  402d73:	89 45 a0             	mov    %eax,-0x60(%ebp)
  402d76:	8d b4 26 00 00 00 00 	lea    0x0(%esi,%eiz,1),%esi
  402d7d:	8d 76 00             	lea    0x0(%esi),%esi
  402d80:	8b 45 cc             	mov    -0x34(%ebp),%eax
  402d83:	89 04 24             	mov    %eax,(%esp)
  402d86:	e8 65 0c 00 00       	call   4039f0 <___mingw_readdir>
  402d8b:	89 c6                	mov    %eax,%esi
  402d8d:	85 c0                	test   %eax,%eax
  402d8f:	0f 84 30 01 00 00    	je     402ec5 <.text+0xda5>
  402d95:	8b 7d c4             	mov    -0x3c(%ebp),%edi
  402d98:	85 ff                	test   %edi,%edi
  402d9a:	74 06                	je     402da2 <.text+0xc82>
  402d9c:	83 7e 08 10          	cmpl   $0x10,0x8(%esi)
  402da0:	75 de                	jne    402d80 <.text+0xc60>
  402da2:	8d 7e 0c             	lea    0xc(%esi),%edi
  402da5:	8b 4d d0             	mov    -0x30(%ebp),%ecx
  402da8:	8b 45 b8             	mov    -0x48(%ebp),%eax
  402dab:	89 fa                	mov    %edi,%edx
  402dad:	e8 9e f6 ff ff       	call   402450 <.text+0x330>
  402db2:	85 c0                	test   %eax,%eax
  402db4:	75 ca                	jne    402d80 <.text+0xc60>
  402db6:	0f b7 4e 06          	movzwl 0x6(%esi),%ecx
  402dba:	8b 45 a0             	mov    -0x60(%ebp),%eax
  402dbd:	89 65 ac             	mov    %esp,-0x54(%ebp)
  402dc0:	8d 44 01 0f          	lea    0xf(%ecx,%eax,1),%eax
  402dc4:	c1 e8 04             	shr    $0x4,%eax
  402dc7:	c1 e0 04             	shl    $0x4,%eax
  402dca:	e8 f1 0f 00 00       	call   403dc0 <___chkstk_ms>
  402dcf:	8b 75 b4             	mov    -0x4c(%ebp),%esi
  402dd2:	29 c4                	sub    %eax,%esp
  402dd4:	8d 54 24 0c          	lea    0xc(%esp),%edx
  402dd8:	89 55 a8             	mov    %edx,-0x58(%ebp)
  402ddb:	89 d0                	mov    %edx,%eax
  402ddd:	85 f6                	test   %esi,%esi
  402ddf:	0f 85 3f 01 00 00    	jne    402f24 <.text+0xe04>
  402de5:	83 c1 01             	add    $0x1,%ecx
  402de8:	89 55 a4             	mov    %edx,-0x5c(%ebp)
  402deb:	89 4c 24 08          	mov    %ecx,0x8(%esp)
  402def:	89 7c 24 04          	mov    %edi,0x4(%esp)
  402df3:	89 e7                	mov    %esp,%edi
  402df5:	89 04 24             	mov    %eax,(%esp)
  402df8:	e8 47 10 00 00       	call   403e44 <_memcpy>
  402dfd:	8b 55 a4             	mov    -0x5c(%ebp),%edx
  402e00:	89 14 24             	mov    %edx,(%esp)
  402e03:	e8 0c 10 00 00       	call   403e14 <_strlen>
  402e08:	83 c0 10             	add    $0x10,%eax
  402e0b:	c1 e8 04             	shr    $0x4,%eax
  402e0e:	c1 e0 04             	shl    $0x4,%eax
  402e11:	e8 aa 0f 00 00       	call   403dc0 <___chkstk_ms>
  402e16:	8b 75 a8             	mov    -0x58(%ebp),%esi
  402e19:	29 c4                	sub    %eax,%esp
  402e1b:	8d 44 24 0c          	lea    0xc(%esp),%eax
  402e1f:	89 45 a4             	mov    %eax,-0x5c(%ebp)
  402e22:	89 c2                	mov    %eax,%edx
  402e24:	eb 16                	jmp    402e3c <.text+0xd1c>
  402e26:	8d b4 26 00 00 00 00 	lea    0x0(%esi,%eiz,1),%esi
  402e2d:	8d 76 00             	lea    0x0(%esi),%esi
  402e30:	83 c2 01             	add    $0x1,%edx
  402e33:	89 ce                	mov    %ecx,%esi
  402e35:	88 42 ff             	mov    %al,-0x1(%edx)
  402e38:	84 c0                	test   %al,%al
  402e3a:	74 1b                	je     402e57 <.text+0xd37>
  402e3c:	0f b6 06             	movzbl (%esi),%eax
  402e3f:	8d 4e 01             	lea    0x1(%esi),%ecx
  402e42:	3c 7f                	cmp    $0x7f,%al
  402e44:	75 ea                	jne    402e30 <.text+0xd10>
  402e46:	0f b6 46 01          	movzbl 0x1(%esi),%eax
  402e4a:	83 c2 01             	add    $0x1,%edx
  402e4d:	83 c6 02             	add    $0x2,%esi
  402e50:	88 42 ff             	mov    %al,-0x1(%edx)
  402e53:	84 c0                	test   %al,%al
  402e55:	75 e5                	jne    402e3c <.text+0xd1c>
  402e57:	8b 45 a4             	mov    -0x5c(%ebp),%eax
  402e5a:	89 04 24             	mov    %eax,(%esp)
  402e5d:	e8 92 0f 00 00       	call   403df4 <_strdup>
  402e62:	89 fc                	mov    %edi,%esp
  402e64:	89 c6                	mov    %eax,%esi
  402e66:	85 c0                	test   %eax,%eax
  402e68:	0f 84 38 02 00 00    	je     4030a6 <.text+0xf86>
  402e6e:	8b 7d d4             	mov    -0x2c(%ebp),%edi
  402e71:	31 c0                	xor    %eax,%eax
  402e73:	83 ff 02             	cmp    $0x2,%edi
  402e76:	0f 94 c0             	sete   %al
  402e79:	83 e8 01             	sub    $0x1,%eax
  402e7c:	21 c7                	and    %eax,%edi
  402e7e:	89 7d d4             	mov    %edi,-0x2c(%ebp)
  402e81:	f6 45 d0 40          	testb  $0x40,-0x30(%ebp)
  402e85:	0f 84 e2 00 00 00    	je     402f6d <.text+0xe4d>
  402e8b:	8b 55 08             	mov    0x8(%ebp),%edx
  402e8e:	85 d2                	test   %edx,%edx
  402e90:	0f 85 5e 01 00 00    	jne    402ff4 <.text+0xed4>
  402e96:	8b 65 ac             	mov    -0x54(%ebp),%esp
  402e99:	e9 e2 fe ff ff       	jmp    402d80 <.text+0xc60>
  402e9e:	89 45 d4             	mov    %eax,-0x2c(%ebp)
  402ea1:	e9 42 fc ff ff       	jmp    402ae8 <.text+0x9c8>
  402ea6:	8d 45 d8             	lea    -0x28(%ebp),%eax
  402ea9:	8b 55 d0             	mov    -0x30(%ebp),%edx
  402eac:	89 04 24             	mov    %eax,(%esp)
  402eaf:	8b 4d c8             	mov    -0x38(%ebp),%ecx
  402eb2:	8b 45 c0             	mov    -0x40(%ebp),%eax
  402eb5:	80 ce 80             	or     $0x80,%dh
  402eb8:	e8 63 f9 ff ff       	call   402820 <.text+0x700>
  402ebd:	89 45 d4             	mov    %eax,-0x2c(%ebp)
  402ec0:	e9 5e fa ff ff       	jmp    402923 <.text+0x803>
  402ec5:	8b 45 cc             	mov    -0x34(%ebp),%eax
  402ec8:	89 04 24             	mov    %eax,(%esp)
  402ecb:	e8 70 0b 00 00       	call   403a40 <___mingw_closedir>
  402ed0:	8b 45 b0             	mov    -0x50(%ebp),%eax
  402ed3:	85 c0                	test   %eax,%eax
  402ed5:	0f 84 44 fe ff ff    	je     402d1f <.text+0xbff>
  402edb:	8b 55 08             	mov    0x8(%ebp),%edx
  402ede:	8b 45 b0             	mov    -0x50(%ebp),%eax
  402ee1:	e8 9a f8 ff ff       	call   402780 <.text+0x660>
  402ee6:	e9 34 fe ff ff       	jmp    402d1f <.text+0xbff>
  402eeb:	89 34 24             	mov    %esi,(%esp)
  402eee:	e8 01 0f 00 00       	call   403df4 <_strdup>
  402ef3:	89 dc                	mov    %ebx,%esp
  402ef5:	85 c0                	test   %eax,%eax
  402ef7:	74 24                	je     402f1d <.text+0xdfd>
  402ef9:	8b 55 08             	mov    0x8(%ebp),%edx
  402efc:	85 d2                	test   %edx,%edx
  402efe:	74 1d                	je     402f1d <.text+0xdfd>
  402f00:	8b 55 08             	mov    0x8(%ebp),%edx
  402f03:	e8 18 f8 ff ff       	call   402720 <.text+0x600>
  402f08:	8b 45 e0             	mov    -0x20(%ebp),%eax
  402f0b:	89 c7                	mov    %eax,%edi
  402f0d:	89 3c 24             	mov    %edi,(%esp)
  402f10:	e8 db f1 ff ff       	call   4020f0 <___mingw_aligned_free>
  402f15:	8b 65 bc             	mov    -0x44(%ebp),%esp
  402f18:	e9 ce fb ff ff       	jmp    402aeb <.text+0x9cb>
  402f1d:	8b 45 e0             	mov    -0x20(%ebp),%eax
  402f20:	89 c7                	mov    %eax,%edi
  402f22:	eb e9                	jmp    402f0d <.text+0xded>
  402f24:	8b 75 b4             	mov    -0x4c(%ebp),%esi
  402f27:	8b 03                	mov    (%ebx),%eax
  402f29:	89 4d 98             	mov    %ecx,-0x68(%ebp)
  402f2c:	89 14 24             	mov    %edx,(%esp)
  402f2f:	89 74 24 08          	mov    %esi,0x8(%esp)
  402f33:	89 44 24 04          	mov    %eax,0x4(%esp)
  402f37:	89 55 a4             	mov    %edx,-0x5c(%ebp)
  402f3a:	e8 05 0f 00 00       	call   403e44 <_memcpy>
  402f3f:	0f b6 44 34 0b       	movzbl 0xb(%esp,%esi,1),%eax
  402f44:	8b 55 a4             	mov    -0x5c(%ebp),%edx
  402f47:	8b 4d 98             	mov    -0x68(%ebp),%ecx
  402f4a:	3c 2f                	cmp    $0x2f,%al
  402f4c:	0f 84 b1 00 00 00    	je     403003 <.text+0xee3>
  402f52:	3c 5c                	cmp    $0x5c,%al
  402f54:	0f 84 a9 00 00 00    	je     403003 <.text+0xee3>
  402f5a:	8b 75 b4             	mov    -0x4c(%ebp),%esi
  402f5d:	0f b6 45 9f          	movzbl -0x61(%ebp),%eax
  402f61:	88 04 32             	mov    %al,(%edx,%esi,1)
  402f64:	8d 44 32 01          	lea    0x1(%edx,%esi,1),%eax
  402f68:	e9 78 fe ff ff       	jmp    402de5 <.text+0xcc5>
  402f6d:	8b 7d b0             	mov    -0x50(%ebp),%edi
  402f70:	85 ff                	test   %edi,%edi
  402f72:	0f 84 ff 00 00 00    	je     403077 <.text+0xf57>
  402f78:	8b 45 d0             	mov    -0x30(%ebp),%eax
  402f7b:	89 5d a8             	mov    %ebx,-0x58(%ebp)
  402f7e:	25 00 40 00 00       	and    $0x4000,%eax
  402f83:	89 c3                	mov    %eax,%ebx
  402f85:	eb 1f                	jmp    402fa6 <.text+0xe86>
  402f87:	8d b4 26 00 00 00 00 	lea    0x0(%esi,%eiz,1),%esi
  402f8e:	66 90                	xchg   %ax,%ax
  402f90:	e8 87 0e 00 00       	call   403e1c <_strcoll>
  402f95:	8b 0f                	mov    (%edi),%ecx
  402f97:	8b 57 04             	mov    0x4(%edi),%edx
  402f9a:	85 c0                	test   %eax,%eax
  402f9c:	7f 02                	jg     402fa0 <.text+0xe80>
  402f9e:	89 ca                	mov    %ecx,%edx
  402fa0:	85 d2                	test   %edx,%edx
  402fa2:	74 17                	je     402fbb <.text+0xe9b>
  402fa4:	89 d7                	mov    %edx,%edi
  402fa6:	8b 47 08             	mov    0x8(%edi),%eax
  402fa9:	89 34 24             	mov    %esi,(%esp)
  402fac:	89 44 24 04          	mov    %eax,0x4(%esp)
  402fb0:	85 db                	test   %ebx,%ebx
  402fb2:	75 dc                	jne    402f90 <.text+0xe70>
  402fb4:	e8 33 0e 00 00       	call   403dec <_stricoll>
  402fb9:	eb da                	jmp    402f95 <.text+0xe75>
  402fbb:	8b 5d a8             	mov    -0x58(%ebp),%ebx
  402fbe:	89 45 a8             	mov    %eax,-0x58(%ebp)
  402fc1:	c7 04 24 0c 00 00 00 	movl   $0xc,(%esp)
  402fc8:	e8 87 0e 00 00       	call   403e54 <_malloc>
  402fcd:	8b 55 a8             	mov    -0x58(%ebp),%edx
  402fd0:	85 c0                	test   %eax,%eax
  402fd2:	0f 84 be fe ff ff    	je     402e96 <.text+0xd76>
  402fd8:	89 70 08             	mov    %esi,0x8(%eax)
  402fdb:	c7 40 04 00 00 00 00 	movl   $0x0,0x4(%eax)
  402fe2:	c7 00 00 00 00 00    	movl   $0x0,(%eax)
  402fe8:	85 d2                	test   %edx,%edx
  402fea:	7e 21                	jle    40300d <.text+0xeed>
  402fec:	89 47 04             	mov    %eax,0x4(%edi)
  402fef:	e9 a2 fe ff ff       	jmp    402e96 <.text+0xd76>
  402ff4:	8b 55 08             	mov    0x8(%ebp),%edx
  402ff7:	89 f0                	mov    %esi,%eax
  402ff9:	e8 22 f7 ff ff       	call   402720 <.text+0x600>
  402ffe:	e9 93 fe ff ff       	jmp    402e96 <.text+0xd76>
  403003:	8b 45 b4             	mov    -0x4c(%ebp),%eax
  403006:	01 d0                	add    %edx,%eax
  403008:	e9 d8 fd ff ff       	jmp    402de5 <.text+0xcc5>
  40300d:	89 07                	mov    %eax,(%edi)
  40300f:	e9 82 fe ff ff       	jmp    402e96 <.text+0xd76>
  403014:	8b 7d c4             	mov    -0x3c(%ebp),%edi
  403017:	8b 55 d0             	mov    -0x30(%ebp),%edx
  40301a:	89 f8                	mov    %edi,%eax
  40301c:	e8 5f f6 ff ff       	call   402680 <.text+0x560>
  403021:	89 45 d4             	mov    %eax,-0x2c(%ebp)
  403024:	85 c0                	test   %eax,%eax
  403026:	74 08                	je     403030 <.text+0xf10>
  403028:	8b 5d c4             	mov    -0x3c(%ebp),%ebx
  40302b:	e9 35 f9 ff ff       	jmp    402965 <.text+0x845>
  403030:	89 3c 24             	mov    %edi,(%esp)
  403033:	89 e3                	mov    %esp,%ebx
  403035:	e8 da 0d 00 00       	call   403e14 <_strlen>
  40303a:	83 c0 10             	add    $0x10,%eax
  40303d:	c1 e8 04             	shr    $0x4,%eax
  403040:	c1 e0 04             	shl    $0x4,%eax
  403043:	e8 78 0d 00 00       	call   403dc0 <___chkstk_ms>
  403048:	29 c4                	sub    %eax,%esp
  40304a:	89 f9                	mov    %edi,%ecx
  40304c:	8d 74 24 0c          	lea    0xc(%esp),%esi
  403050:	89 f2                	mov    %esi,%edx
  403052:	eb 10                	jmp    403064 <.text+0xf44>
  403054:	89 f9                	mov    %edi,%ecx
  403056:	83 c2 01             	add    $0x1,%edx
  403059:	88 42 ff             	mov    %al,-0x1(%edx)
  40305c:	84 c0                	test   %al,%al
  40305e:	0f 84 87 fe ff ff    	je     402eeb <.text+0xdcb>
  403064:	0f b6 01             	movzbl (%ecx),%eax
  403067:	8d 79 01             	lea    0x1(%ecx),%edi
  40306a:	3c 7f                	cmp    $0x7f,%al
  40306c:	75 e6                	jne    403054 <.text+0xf34>
  40306e:	0f b6 41 01          	movzbl 0x1(%ecx),%eax
  403072:	83 c1 02             	add    $0x2,%ecx
  403075:	eb df                	jmp    403056 <.text+0xf36>
  403077:	c7 04 24 0c 00 00 00 	movl   $0xc,(%esp)
  40307e:	e8 d1 0d 00 00       	call   403e54 <_malloc>
  403083:	89 45 b0             	mov    %eax,-0x50(%ebp)
  403086:	85 c0                	test   %eax,%eax
  403088:	0f 84 08 fe ff ff    	je     402e96 <.text+0xd76>
  40308e:	8b 45 b0             	mov    -0x50(%ebp),%eax
  403091:	89 70 08             	mov    %esi,0x8(%eax)
  403094:	c7 40 04 00 00 00 00 	movl   $0x0,0x4(%eax)
  40309b:	c7 00 00 00 00 00    	movl   $0x0,(%eax)
  4030a1:	e9 f0 fd ff ff       	jmp    402e96 <.text+0xd76>
  4030a6:	c7 45 d4 03 00 00 00 	movl   $0x3,-0x2c(%ebp)
  4030ad:	e9 e4 fd ff ff       	jmp    402e96 <.text+0xd76>
  4030b2:	8d b4 26 00 00 00 00 	lea    0x0(%esi,%eiz,1),%esi
  4030b9:	8d b4 26 00 00 00 00 	lea    0x0(%esi,%eiz,1),%esi

004030c0 <___mingw_glob>:
  4030c0:	55                   	push   %ebp
  4030c1:	89 e5                	mov    %esp,%ebp
  4030c3:	57                   	push   %edi
  4030c4:	56                   	push   %esi
  4030c5:	53                   	push   %ebx
  4030c6:	83 ec 2c             	sub    $0x2c,%esp
  4030c9:	8b 75 14             	mov    0x14(%ebp),%esi
  4030cc:	8b 5d 08             	mov    0x8(%ebp),%ebx
  4030cf:	8b 7d 0c             	mov    0xc(%ebp),%edi
  4030d2:	85 f6                	test   %esi,%esi
  4030d4:	74 08                	je     4030de <___mingw_glob+0x1e>
  4030d6:	f7 c7 02 00 00 00    	test   $0x2,%edi
  4030dc:	74 3a                	je     403118 <___mingw_glob+0x58>
  4030de:	81 3e 14 52 40 00    	cmpl   $0x405214,(%esi)
  4030e4:	74 0d                	je     4030f3 <___mingw_glob+0x33>
  4030e6:	89 f0                	mov    %esi,%eax
  4030e8:	e8 e3 f6 ff ff       	call   4027d0 <.text+0x6b0>
  4030ed:	c7 06 14 52 40 00    	movl   $0x405214,(%esi)
  4030f3:	89 34 24             	mov    %esi,(%esp)
  4030f6:	8b 4d 10             	mov    0x10(%ebp),%ecx
  4030f9:	89 fa                	mov    %edi,%edx
  4030fb:	89 d8                	mov    %ebx,%eax
  4030fd:	e8 1e f7 ff ff       	call   402820 <.text+0x700>
  403102:	89 c1                	mov    %eax,%ecx
  403104:	83 f8 02             	cmp    $0x2,%eax
  403107:	74 1f                	je     403128 <___mingw_glob+0x68>
  403109:	8d 65 f4             	lea    -0xc(%ebp),%esp
  40310c:	89 c8                	mov    %ecx,%eax
  40310e:	5b                   	pop    %ebx
  40310f:	5e                   	pop    %esi
  403110:	5f                   	pop    %edi
  403111:	5d                   	pop    %ebp
  403112:	c3                   	ret    
  403113:	8d 74 26 00          	lea    0x0(%esi,%eiz,1),%esi
  403117:	90                   	nop
  403118:	c7 46 0c 00 00 00 00 	movl   $0x0,0xc(%esi)
  40311f:	eb bd                	jmp    4030de <___mingw_glob+0x1e>
  403121:	8d b4 26 00 00 00 00 	lea    0x0(%esi,%eiz,1),%esi
  403128:	83 e7 10             	and    $0x10,%edi
  40312b:	74 dc                	je     403109 <___mingw_glob+0x49>
  40312d:	89 45 dc             	mov    %eax,-0x24(%ebp)
  403130:	89 65 e4             	mov    %esp,-0x1c(%ebp)
  403133:	89 1c 24             	mov    %ebx,(%esp)
  403136:	e8 d9 0c 00 00       	call   403e14 <_strlen>
  40313b:	83 c0 10             	add    $0x10,%eax
  40313e:	c1 e8 04             	shr    $0x4,%eax
  403141:	c1 e0 04             	shl    $0x4,%eax
  403144:	e8 77 0c 00 00       	call   403dc0 <___chkstk_ms>
  403149:	8b 4d dc             	mov    -0x24(%ebp),%ecx
  40314c:	29 c4                	sub    %eax,%esp
  40314e:	8d 44 24 04          	lea    0x4(%esp),%eax
  403152:	89 45 e0             	mov    %eax,-0x20(%ebp)
  403155:	89 c2                	mov    %eax,%edx
  403157:	eb 13                	jmp    40316c <___mingw_glob+0xac>
  403159:	8d b4 26 00 00 00 00 	lea    0x0(%esi,%eiz,1),%esi
  403160:	83 c2 01             	add    $0x1,%edx
  403163:	89 fb                	mov    %edi,%ebx
  403165:	88 42 ff             	mov    %al,-0x1(%edx)
  403168:	84 c0                	test   %al,%al
  40316a:	74 1b                	je     403187 <___mingw_glob+0xc7>
  40316c:	0f b6 03             	movzbl (%ebx),%eax
  40316f:	8d 7b 01             	lea    0x1(%ebx),%edi
  403172:	3c 7f                	cmp    $0x7f,%al
  403174:	75 ea                	jne    403160 <___mingw_glob+0xa0>
  403176:	0f b6 43 01          	movzbl 0x1(%ebx),%eax
  40317a:	83 c2 01             	add    $0x1,%edx
  40317d:	83 c3 02             	add    $0x2,%ebx
  403180:	88 42 ff             	mov    %al,-0x1(%edx)
  403183:	84 c0                	test   %al,%al
  403185:	75 e5                	jne    40316c <___mingw_glob+0xac>
  403187:	8b 45 e0             	mov    -0x20(%ebp),%eax
  40318a:	89 4d dc             	mov    %ecx,-0x24(%ebp)
  40318d:	89 04 24             	mov    %eax,(%esp)
  403190:	e8 5f 0c 00 00       	call   403df4 <_strdup>
  403195:	8b 65 e4             	mov    -0x1c(%ebp),%esp
  403198:	8b 4d dc             	mov    -0x24(%ebp),%ecx
  40319b:	85 c0                	test   %eax,%eax
  40319d:	0f 84 66 ff ff ff    	je     403109 <___mingw_glob+0x49>
  4031a3:	89 f2                	mov    %esi,%edx
  4031a5:	89 4d e4             	mov    %ecx,-0x1c(%ebp)
  4031a8:	e8 73 f5 ff ff       	call   402720 <.text+0x600>
  4031ad:	8b 4d e4             	mov    -0x1c(%ebp),%ecx
  4031b0:	e9 54 ff ff ff       	jmp    403109 <___mingw_glob+0x49>
  4031b5:	8d b4 26 00 00 00 00 	lea    0x0(%esi,%eiz,1),%esi
  4031bc:	8d 74 26 00          	lea    0x0(%esi,%eiz,1),%esi

004031c0 <___mingw_globfree>:
  4031c0:	57                   	push   %edi
  4031c1:	56                   	push   %esi
  4031c2:	53                   	push   %ebx
  4031c3:	83 ec 10             	sub    $0x10,%esp
  4031c6:	8b 74 24 20          	mov    0x20(%esp),%esi
  4031ca:	81 3e 14 52 40 00    	cmpl   $0x405214,(%esi)
  4031d0:	74 0e                	je     4031e0 <___mingw_globfree+0x20>
  4031d2:	83 c4 10             	add    $0x10,%esp
  4031d5:	5b                   	pop    %ebx
  4031d6:	5e                   	pop    %esi
  4031d7:	5f                   	pop    %edi
  4031d8:	c3                   	ret    
  4031d9:	8d b4 26 00 00 00 00 	lea    0x0(%esi,%eiz,1),%esi
  4031e0:	8b 7e 04             	mov    0x4(%esi),%edi
  4031e3:	8b 5e 0c             	mov    0xc(%esi),%ebx
  4031e6:	85 ff                	test   %edi,%edi
  4031e8:	7e 1b                	jle    403205 <___mingw_globfree+0x45>
  4031ea:	01 df                	add    %ebx,%edi
  4031ec:	8d 74 26 00          	lea    0x0(%esi,%eiz,1),%esi
  4031f0:	8b 46 08             	mov    0x8(%esi),%eax
  4031f3:	8b 04 98             	mov    (%eax,%ebx,4),%eax
  4031f6:	83 c3 01             	add    $0x1,%ebx
  4031f9:	89 04 24             	mov    %eax,(%esp)
  4031fc:	e8 ef ee ff ff       	call   4020f0 <___mingw_aligned_free>
  403201:	39 df                	cmp    %ebx,%edi
  403203:	75 eb                	jne    4031f0 <___mingw_globfree+0x30>
  403205:	8b 46 08             	mov    0x8(%esi),%eax
  403208:	89 44 24 20          	mov    %eax,0x20(%esp)
  40320c:	83 c4 10             	add    $0x10,%esp
  40320f:	5b                   	pop    %ebx
  403210:	5e                   	pop    %esi
  403211:	5f                   	pop    %edi
  403212:	e9 d9 ee ff ff       	jmp    4020f0 <___mingw_aligned_free>
  403217:	90                   	nop
  403218:	90                   	nop
  403219:	90                   	nop
  40321a:	90                   	nop
  40321b:	90                   	nop
  40321c:	90                   	nop
  40321d:	90                   	nop
  40321e:	90                   	nop
  40321f:	90                   	nop

00403220 <___mingw_dirname>:
  403220:	55                   	push   %ebp
  403221:	89 e5                	mov    %esp,%ebp
  403223:	57                   	push   %edi
  403224:	56                   	push   %esi
  403225:	53                   	push   %ebx
  403226:	83 ec 2c             	sub    $0x2c,%esp
  403229:	c7 44 24 04 00 00 00 	movl   $0x0,0x4(%esp)
  403230:	00 
  403231:	c7 04 24 02 00 00 00 	movl   $0x2,(%esp)
  403238:	e8 ef 0b 00 00       	call   403e2c <_setlocale>
  40323d:	89 c3                	mov    %eax,%ebx
  40323f:	85 c0                	test   %eax,%eax
  403241:	74 0a                	je     40324d <___mingw_dirname+0x2d>
  403243:	89 04 24             	mov    %eax,(%esp)
  403246:	e8 a9 0b 00 00       	call   403df4 <_strdup>
  40324b:	89 c3                	mov    %eax,%ebx
  40324d:	c7 44 24 04 28 52 40 	movl   $0x405228,0x4(%esp)
  403254:	00 
  403255:	c7 04 24 02 00 00 00 	movl   $0x2,(%esp)
  40325c:	e8 cb 0b 00 00       	call   403e2c <_setlocale>
  403261:	8b 4d 08             	mov    0x8(%ebp),%ecx
  403264:	85 c9                	test   %ecx,%ecx
  403266:	74 08                	je     403270 <___mingw_dirname+0x50>
  403268:	8b 45 08             	mov    0x8(%ebp),%eax
  40326b:	80 38 00             	cmpb   $0x0,(%eax)
  40326e:	75 78                	jne    4032e8 <___mingw_dirname+0xc8>
  403270:	c7 44 24 08 00 00 00 	movl   $0x0,0x8(%esp)
  403277:	00 
  403278:	c7 44 24 04 2a 52 40 	movl   $0x40522a,0x4(%esp)
  40327f:	00 
  403280:	c7 04 24 00 00 00 00 	movl   $0x0,(%esp)
  403287:	e8 70 0b 00 00       	call   403dfc <_wcstombs>
  40328c:	8d 70 01             	lea    0x1(%eax),%esi
  40328f:	89 74 24 04          	mov    %esi,0x4(%esp)
  403293:	a1 68 70 40 00       	mov    0x407068,%eax
  403298:	89 04 24             	mov    %eax,(%esp)
  40329b:	e8 c0 09 00 00       	call   403c60 <___mingw_realloc>
  4032a0:	a3 68 70 40 00       	mov    %eax,0x407068
  4032a5:	89 74 24 08          	mov    %esi,0x8(%esp)
  4032a9:	c7 44 24 04 2a 52 40 	movl   $0x40522a,0x4(%esp)
  4032b0:	00 
  4032b1:	89 04 24             	mov    %eax,(%esp)
  4032b4:	e8 43 0b 00 00       	call   403dfc <_wcstombs>
  4032b9:	89 5c 24 04          	mov    %ebx,0x4(%esp)
  4032bd:	c7 04 24 02 00 00 00 	movl   $0x2,(%esp)
  4032c4:	e8 63 0b 00 00       	call   403e2c <_setlocale>
  4032c9:	89 1c 24             	mov    %ebx,(%esp)
  4032cc:	e8 1f ee ff ff       	call   4020f0 <___mingw_aligned_free>
  4032d1:	8b 35 68 70 40 00    	mov    0x407068,%esi
  4032d7:	8d 65 f4             	lea    -0xc(%ebp),%esp
  4032da:	89 f0                	mov    %esi,%eax
  4032dc:	5b                   	pop    %ebx
  4032dd:	5e                   	pop    %esi
  4032de:	5f                   	pop    %edi
  4032df:	5d                   	pop    %ebp
  4032e0:	c3                   	ret    
  4032e1:	8d b4 26 00 00 00 00 	lea    0x0(%esi,%eiz,1),%esi
  4032e8:	89 65 dc             	mov    %esp,-0x24(%ebp)
  4032eb:	c7 44 24 08 00 00 00 	movl   $0x0,0x8(%esp)
  4032f2:	00 
  4032f3:	8b 45 08             	mov    0x8(%ebp),%eax
  4032f6:	c7 04 24 00 00 00 00 	movl   $0x0,(%esp)
  4032fd:	89 44 24 04          	mov    %eax,0x4(%esp)
  403301:	e8 46 0b 00 00       	call   403e4c <_mbstowcs>
  403306:	89 c2                	mov    %eax,%edx
  403308:	8d 44 00 11          	lea    0x11(%eax,%eax,1),%eax
  40330c:	c1 e8 04             	shr    $0x4,%eax
  40330f:	c1 e0 04             	shl    $0x4,%eax
  403312:	e8 a9 0a 00 00       	call   403dc0 <___chkstk_ms>
  403317:	29 c4                	sub    %eax,%esp
  403319:	89 54 24 08          	mov    %edx,0x8(%esp)
  40331d:	8b 45 08             	mov    0x8(%ebp),%eax
  403320:	8d 7c 24 0c          	lea    0xc(%esp),%edi
  403324:	89 3c 24             	mov    %edi,(%esp)
  403327:	89 44 24 04          	mov    %eax,0x4(%esp)
  40332b:	e8 1c 0b 00 00       	call   403e4c <_mbstowcs>
  403330:	31 d2                	xor    %edx,%edx
  403332:	83 f8 01             	cmp    $0x1,%eax
  403335:	89 45 d8             	mov    %eax,-0x28(%ebp)
  403338:	66 89 14 47          	mov    %dx,(%edi,%eax,2)
  40333c:	0f b7 07             	movzwl (%edi),%eax
  40333f:	76 3f                	jbe    403380 <___mingw_dirname+0x160>
  403341:	89 c1                	mov    %eax,%ecx
  403343:	66 89 45 e2          	mov    %ax,-0x1e(%ebp)
  403347:	0f b7 47 02          	movzwl 0x2(%edi),%eax
  40334b:	89 7d e4             	mov    %edi,-0x1c(%ebp)
  40334e:	66 83 f9 2f          	cmp    $0x2f,%cx
  403352:	0f 84 08 02 00 00    	je     403560 <___mingw_dirname+0x340>
  403358:	66 83 f9 5c          	cmp    $0x5c,%cx
  40335c:	0f 84 fe 01 00 00    	je     403560 <___mingw_dirname+0x340>
  403362:	66 83 f8 3a          	cmp    $0x3a,%ax
  403366:	75 1f                	jne    403387 <___mingw_dirname+0x167>
  403368:	8d 47 04             	lea    0x4(%edi),%eax
  40336b:	89 45 e4             	mov    %eax,-0x1c(%ebp)
  40336e:	0f b7 47 04          	movzwl 0x4(%edi),%eax
  403372:	66 89 45 e2          	mov    %ax,-0x1e(%ebp)
  403376:	eb 0f                	jmp    403387 <___mingw_dirname+0x167>
  403378:	8d b4 26 00 00 00 00 	lea    0x0(%esi,%eiz,1),%esi
  40337f:	90                   	nop
  403380:	66 89 45 e2          	mov    %ax,-0x1e(%ebp)
  403384:	89 7d e4             	mov    %edi,-0x1c(%ebp)
  403387:	66 83 7d e2 00       	cmpw   $0x0,-0x1e(%ebp)
  40338c:	75 12                	jne    4033a0 <___mingw_dirname+0x180>
  40338e:	8b 65 dc             	mov    -0x24(%ebp),%esp
  403391:	e9 da fe ff ff       	jmp    403270 <___mingw_dirname+0x50>
  403396:	8d b4 26 00 00 00 00 	lea    0x0(%esi,%eiz,1),%esi
  40339d:	8d 76 00             	lea    0x0(%esi),%esi
  4033a0:	8b 45 e4             	mov    -0x1c(%ebp),%eax
  4033a3:	0f b7 55 e2          	movzwl -0x1e(%ebp),%edx
  4033a7:	89 c1                	mov    %eax,%ecx
  4033a9:	eb 19                	jmp    4033c4 <___mingw_dirname+0x1a4>
  4033ab:	8d 74 26 00          	lea    0x0(%esi,%eiz,1),%esi
  4033af:	90                   	nop
  4033b0:	89 c6                	mov    %eax,%esi
  4033b2:	66 83 fa 5c          	cmp    $0x5c,%dx
  4033b6:	74 23                	je     4033db <___mingw_dirname+0x1bb>
  4033b8:	0f b7 56 02          	movzwl 0x2(%esi),%edx
  4033bc:	83 c0 02             	add    $0x2,%eax
  4033bf:	66 85 d2             	test   %dx,%dx
  4033c2:	74 34                	je     4033f8 <___mingw_dirname+0x1d8>
  4033c4:	66 83 fa 2f          	cmp    $0x2f,%dx
  4033c8:	75 e6                	jne    4033b0 <___mingw_dirname+0x190>
  4033ca:	0f b7 10             	movzwl (%eax),%edx
  4033cd:	66 83 fa 2f          	cmp    $0x2f,%dx
  4033d1:	75 11                	jne    4033e4 <___mingw_dirname+0x1c4>
  4033d3:	8d 74 26 00          	lea    0x0(%esi,%eiz,1),%esi
  4033d7:	90                   	nop
  4033d8:	83 c0 02             	add    $0x2,%eax
  4033db:	0f b7 10             	movzwl (%eax),%edx
  4033de:	66 83 fa 2f          	cmp    $0x2f,%dx
  4033e2:	74 f4                	je     4033d8 <___mingw_dirname+0x1b8>
  4033e4:	66 83 fa 5c          	cmp    $0x5c,%dx
  4033e8:	74 ee                	je     4033d8 <___mingw_dirname+0x1b8>
  4033ea:	89 c6                	mov    %eax,%esi
  4033ec:	66 85 d2             	test   %dx,%dx
  4033ef:	74 07                	je     4033f8 <___mingw_dirname+0x1d8>
  4033f1:	89 c1                	mov    %eax,%ecx
  4033f3:	eb c3                	jmp    4033b8 <___mingw_dirname+0x198>
  4033f5:	8d 76 00             	lea    0x0(%esi),%esi
  4033f8:	39 4d e4             	cmp    %ecx,-0x1c(%ebp)
  4033fb:	0f 82 8f 00 00 00    	jb     403490 <___mingw_dirname+0x270>
  403401:	0f b7 45 e2          	movzwl -0x1e(%ebp),%eax
  403405:	66 83 f8 2f          	cmp    $0x2f,%ax
  403409:	74 11                	je     40341c <___mingw_dirname+0x1fc>
  40340b:	66 83 f8 5c          	cmp    $0x5c,%ax
  40340f:	74 0b                	je     40341c <___mingw_dirname+0x1fc>
  403411:	8b 45 e4             	mov    -0x1c(%ebp),%eax
  403414:	b9 2e 00 00 00       	mov    $0x2e,%ecx
  403419:	66 89 08             	mov    %cx,(%eax)
  40341c:	8b 45 e4             	mov    -0x1c(%ebp),%eax
  40341f:	31 d2                	xor    %edx,%edx
  403421:	66 89 50 02          	mov    %dx,0x2(%eax)
  403425:	c7 44 24 08 00 00 00 	movl   $0x0,0x8(%esp)
  40342c:	00 
  40342d:	89 7c 24 04          	mov    %edi,0x4(%esp)
  403431:	c7 04 24 00 00 00 00 	movl   $0x0,(%esp)
  403438:	e8 bf 09 00 00       	call   403dfc <_wcstombs>
  40343d:	8d 50 01             	lea    0x1(%eax),%edx
  403440:	89 54 24 04          	mov    %edx,0x4(%esp)
  403444:	a1 68 70 40 00       	mov    0x407068,%eax
  403449:	89 55 e4             	mov    %edx,-0x1c(%ebp)
  40344c:	89 04 24             	mov    %eax,(%esp)
  40344f:	e8 0c 08 00 00       	call   403c60 <___mingw_realloc>
  403454:	8b 55 e4             	mov    -0x1c(%ebp),%edx
  403457:	a3 68 70 40 00       	mov    %eax,0x407068
  40345c:	89 c6                	mov    %eax,%esi
  40345e:	89 54 24 08          	mov    %edx,0x8(%esp)
  403462:	89 7c 24 04          	mov    %edi,0x4(%esp)
  403466:	89 04 24             	mov    %eax,(%esp)
  403469:	e8 8e 09 00 00       	call   403dfc <_wcstombs>
  40346e:	89 5c 24 04          	mov    %ebx,0x4(%esp)
  403472:	c7 04 24 02 00 00 00 	movl   $0x2,(%esp)
  403479:	e8 ae 09 00 00       	call   403e2c <_setlocale>
  40347e:	89 1c 24             	mov    %ebx,(%esp)
  403481:	e8 6a ec ff ff       	call   4020f0 <___mingw_aligned_free>
  403486:	8b 65 dc             	mov    -0x24(%ebp),%esp
  403489:	e9 49 fe ff ff       	jmp    4032d7 <___mingw_dirname+0xb7>
  40348e:	66 90                	xchg   %ax,%ax
  403490:	89 c8                	mov    %ecx,%eax
  403492:	83 e9 02             	sub    $0x2,%ecx
  403495:	39 4d e4             	cmp    %ecx,-0x1c(%ebp)
  403498:	0f 83 4d 01 00 00    	jae    4035eb <___mingw_dirname+0x3cb>
  40349e:	0f b7 01             	movzwl (%ecx),%eax
  4034a1:	66 83 f8 2f          	cmp    $0x2f,%ax
  4034a5:	74 e9                	je     403490 <___mingw_dirname+0x270>
  4034a7:	66 83 f8 5c          	cmp    $0x5c,%ax
  4034ab:	74 e3                	je     403490 <___mingw_dirname+0x270>
  4034ad:	31 c0                	xor    %eax,%eax
  4034af:	66 89 41 02          	mov    %ax,0x2(%ecx)
  4034b3:	0f b7 07             	movzwl (%edi),%eax
  4034b6:	89 f9                	mov    %edi,%ecx
  4034b8:	66 83 f8 2f          	cmp    $0x2f,%ax
  4034bc:	74 12                	je     4034d0 <___mingw_dirname+0x2b0>
  4034be:	66 83 f8 5c          	cmp    $0x5c,%ax
  4034c2:	0f 85 cd 00 00 00    	jne    403595 <___mingw_dirname+0x375>
  4034c8:	8d b4 26 00 00 00 00 	lea    0x0(%esi,%eiz,1),%esi
  4034cf:	90                   	nop
  4034d0:	0f b7 51 02          	movzwl 0x2(%ecx),%edx
  4034d4:	83 c1 02             	add    $0x2,%ecx
  4034d7:	66 83 fa 2f          	cmp    $0x2f,%dx
  4034db:	74 f3                	je     4034d0 <___mingw_dirname+0x2b0>
  4034dd:	66 83 fa 5c          	cmp    $0x5c,%dx
  4034e1:	74 ed                	je     4034d0 <___mingw_dirname+0x2b0>
  4034e3:	89 ca                	mov    %ecx,%edx
  4034e5:	29 fa                	sub    %edi,%edx
  4034e7:	83 fa 04             	cmp    $0x4,%edx
  4034ea:	0f 8e a5 00 00 00    	jle    403595 <___mingw_dirname+0x375>
  4034f0:	89 f9                	mov    %edi,%ecx
  4034f2:	66 85 c0             	test   %ax,%ax
  4034f5:	0f 84 c0 00 00 00    	je     4035bb <___mingw_dirname+0x39b>
  4034fb:	89 5d e4             	mov    %ebx,-0x1c(%ebp)
  4034fe:	89 ca                	mov    %ecx,%edx
  403500:	eb 24                	jmp    403526 <___mingw_dirname+0x306>
  403502:	8d b6 00 00 00 00    	lea    0x0(%esi),%esi
  403508:	0f b7 5a 02          	movzwl 0x2(%edx),%ebx
  40350c:	8d 72 02             	lea    0x2(%edx),%esi
  40350f:	66 83 f8 5c          	cmp    $0x5c,%ax
  403513:	0f 84 97 00 00 00    	je     4035b0 <___mingw_dirname+0x390>
  403519:	89 d8                	mov    %ebx,%eax
  40351b:	89 f2                	mov    %esi,%edx
  40351d:	66 85 c0             	test   %ax,%ax
  403520:	0f 84 92 00 00 00    	je     4035b8 <___mingw_dirname+0x398>
  403526:	83 c1 02             	add    $0x2,%ecx
  403529:	66 89 41 fe          	mov    %ax,-0x2(%ecx)
  40352d:	66 83 f8 2f          	cmp    $0x2f,%ax
  403531:	75 d5                	jne    403508 <___mingw_dirname+0x2e8>
  403533:	0f b7 1a             	movzwl (%edx),%ebx
  403536:	66 83 fb 5c          	cmp    $0x5c,%bx
  40353a:	74 0c                	je     403548 <___mingw_dirname+0x328>
  40353c:	89 d8                	mov    %ebx,%eax
  40353e:	66 83 fb 2f          	cmp    $0x2f,%bx
  403542:	75 d9                	jne    40351d <___mingw_dirname+0x2fd>
  403544:	8d 74 26 00          	lea    0x0(%esi,%eiz,1),%esi
  403548:	0f b7 42 02          	movzwl 0x2(%edx),%eax
  40354c:	83 c2 02             	add    $0x2,%edx
  40354f:	66 83 f8 2f          	cmp    $0x2f,%ax
  403553:	74 f3                	je     403548 <___mingw_dirname+0x328>
  403555:	66 83 f8 5c          	cmp    $0x5c,%ax
  403559:	74 ed                	je     403548 <___mingw_dirname+0x328>
  40355b:	eb c0                	jmp    40351d <___mingw_dirname+0x2fd>
  40355d:	8d 76 00             	lea    0x0(%esi),%esi
  403560:	66 39 45 e2          	cmp    %ax,-0x1e(%ebp)
  403564:	0f 85 1d fe ff ff    	jne    403387 <___mingw_dirname+0x167>
  40356a:	66 83 7f 04 00       	cmpw   $0x0,0x4(%edi)
  40356f:	0f 85 12 fe ff ff    	jne    403387 <___mingw_dirname+0x167>
  403575:	89 5c 24 04          	mov    %ebx,0x4(%esp)
  403579:	c7 04 24 02 00 00 00 	movl   $0x2,(%esp)
  403580:	e8 a7 08 00 00       	call   403e2c <_setlocale>
  403585:	89 1c 24             	mov    %ebx,(%esp)
  403588:	e8 63 eb ff ff       	call   4020f0 <___mingw_aligned_free>
  40358d:	8b 75 08             	mov    0x8(%ebp),%esi
  403590:	e9 f1 fe ff ff       	jmp    403486 <___mingw_dirname+0x266>
  403595:	66 39 47 02          	cmp    %ax,0x2(%edi)
  403599:	0f 85 51 ff ff ff    	jne    4034f0 <___mingw_dirname+0x2d0>
  40359f:	0f b7 01             	movzwl (%ecx),%eax
  4035a2:	e9 4b ff ff ff       	jmp    4034f2 <___mingw_dirname+0x2d2>
  4035a7:	8d b4 26 00 00 00 00 	lea    0x0(%esi,%eiz,1),%esi
  4035ae:	66 90                	xchg   %ax,%ax
  4035b0:	89 f2                	mov    %esi,%edx
  4035b2:	eb 82                	jmp    403536 <___mingw_dirname+0x316>
  4035b4:	8d 74 26 00          	lea    0x0(%esi,%eiz,1),%esi
  4035b8:	8b 5d e4             	mov    -0x1c(%ebp),%ebx
  4035bb:	8b 45 d8             	mov    -0x28(%ebp),%eax
  4035be:	31 f6                	xor    %esi,%esi
  4035c0:	66 89 31             	mov    %si,(%ecx)
  4035c3:	89 44 24 08          	mov    %eax,0x8(%esp)
  4035c7:	89 7c 24 04          	mov    %edi,0x4(%esp)
  4035cb:	8b 45 08             	mov    0x8(%ebp),%eax
  4035ce:	89 04 24             	mov    %eax,(%esp)
  4035d1:	e8 26 08 00 00       	call   403dfc <_wcstombs>
  4035d6:	8b 75 08             	mov    0x8(%ebp),%esi
  4035d9:	83 f8 ff             	cmp    $0xffffffff,%eax
  4035dc:	0f 84 8c fe ff ff    	je     40346e <___mingw_dirname+0x24e>
  4035e2:	c6 04 06 00          	movb   $0x0,(%esi,%eax,1)
  4035e6:	e9 83 fe ff ff       	jmp    40346e <___mingw_dirname+0x24e>
  4035eb:	0f 85 bc fe ff ff    	jne    4034ad <___mingw_dirname+0x28d>
  4035f1:	0f b7 75 e2          	movzwl -0x1e(%ebp),%esi
  4035f5:	66 83 fe 2f          	cmp    $0x2f,%si
  4035f9:	74 0a                	je     403605 <___mingw_dirname+0x3e5>
  4035fb:	66 83 fe 5c          	cmp    $0x5c,%si
  4035ff:	0f 85 a8 fe ff ff    	jne    4034ad <___mingw_dirname+0x28d>
  403605:	0f b7 75 e2          	movzwl -0x1e(%ebp),%esi
  403609:	66 39 71 02          	cmp    %si,0x2(%ecx)
  40360d:	0f 85 9a fe ff ff    	jne    4034ad <___mingw_dirname+0x28d>
  403613:	0f b7 51 04          	movzwl 0x4(%ecx),%edx
  403617:	66 83 fa 2f          	cmp    $0x2f,%dx
  40361b:	0f 84 8c fe ff ff    	je     4034ad <___mingw_dirname+0x28d>
  403621:	66 83 fa 5c          	cmp    $0x5c,%dx
  403625:	0f 84 82 fe ff ff    	je     4034ad <___mingw_dirname+0x28d>
  40362b:	89 c1                	mov    %eax,%ecx
  40362d:	e9 7b fe ff ff       	jmp    4034ad <___mingw_dirname+0x28d>
  403632:	90                   	nop
  403633:	90                   	nop
  403634:	90                   	nop
  403635:	90                   	nop
  403636:	90                   	nop
  403637:	90                   	nop
  403638:	90                   	nop
  403639:	90                   	nop
  40363a:	90                   	nop
  40363b:	90                   	nop
  40363c:	90                   	nop
  40363d:	90                   	nop
  40363e:	90                   	nop
  40363f:	90                   	nop

00403640 <.text>:
  403640:	56                   	push   %esi
  403641:	53                   	push   %ebx
  403642:	89 d3                	mov    %edx,%ebx
  403644:	81 ec 54 01 00 00    	sub    $0x154,%esp
  40364a:	8d 54 24 10          	lea    0x10(%esp),%edx
  40364e:	89 04 24             	mov    %eax,(%esp)
  403651:	89 54 24 04          	mov    %edx,0x4(%esp)
  403655:	e8 ca 08 00 00       	call   403f24 <_FindFirstFileA@8>
  40365a:	83 ec 08             	sub    $0x8,%esp
  40365d:	89 c6                	mov    %eax,%esi
  40365f:	83 f8 ff             	cmp    $0xffffffff,%eax
  403662:	74 74                	je     4036d8 <.text+0x98>
  403664:	31 c0                	xor    %eax,%eax
  403666:	8d 4b 0c             	lea    0xc(%ebx),%ecx
  403669:	66 89 43 06          	mov    %ax,0x6(%ebx)
  40366d:	0f b6 44 24 3c       	movzbl 0x3c(%esp),%eax
  403672:	88 43 0c             	mov    %al,0xc(%ebx)
  403675:	84 c0                	test   %al,%al
  403677:	74 27                	je     4036a0 <.text+0x60>
  403679:	31 c0                	xor    %eax,%eax
  40367b:	eb 07                	jmp    403684 <.text+0x44>
  40367d:	8d 76 00             	lea    0x0(%esi),%esi
  403680:	0f b7 43 06          	movzwl 0x6(%ebx),%eax
  403684:	83 c0 01             	add    $0x1,%eax
  403687:	66 89 43 06          	mov    %ax,0x6(%ebx)
  40368b:	66 3d 04 01          	cmp    $0x104,%ax
  40368f:	0f b7 c0             	movzwl %ax,%eax
  403692:	0f b6 44 04 3c       	movzbl 0x3c(%esp,%eax,1),%eax
  403697:	83 d1 00             	adc    $0x0,%ecx
  40369a:	88 01                	mov    %al,(%ecx)
  40369c:	84 c0                	test   %al,%al
  40369e:	75 e0                	jne    403680 <.text+0x40>
  4036a0:	8b 44 24 10          	mov    0x10(%esp),%eax
  4036a4:	24 58                	and    $0x58,%al
  4036a6:	83 f8 10             	cmp    $0x10,%eax
  4036a9:	77 15                	ja     4036c0 <.text+0x80>
  4036ab:	89 43 08             	mov    %eax,0x8(%ebx)
  4036ae:	81 c4 54 01 00 00    	add    $0x154,%esp
  4036b4:	89 f0                	mov    %esi,%eax
  4036b6:	5b                   	pop    %ebx
  4036b7:	5e                   	pop    %esi
  4036b8:	c3                   	ret    
  4036b9:	8d b4 26 00 00 00 00 	lea    0x0(%esi,%eiz,1),%esi
  4036c0:	c7 43 08 18 00 00 00 	movl   $0x18,0x8(%ebx)
  4036c7:	81 c4 54 01 00 00    	add    $0x154,%esp
  4036cd:	89 f0                	mov    %esi,%eax
  4036cf:	5b                   	pop    %ebx
  4036d0:	5e                   	pop    %esi
  4036d1:	c3                   	ret    
  4036d2:	8d b6 00 00 00 00    	lea    0x0(%esi),%esi
  4036d8:	e8 27 08 00 00       	call   403f04 <_GetLastError@0>
  4036dd:	89 c3                	mov    %eax,%ebx
  4036df:	e8 b0 07 00 00       	call   403e94 <__errno>
  4036e4:	89 18                	mov    %ebx,(%eax)
  4036e6:	83 fb 03             	cmp    $0x3,%ebx
  4036e9:	74 24                	je     40370f <.text+0xcf>
  4036eb:	e8 a4 07 00 00       	call   403e94 <__errno>
  4036f0:	81 38 0b 01 00 00    	cmpl   $0x10b,(%eax)
  4036f6:	74 24                	je     40371c <.text+0xdc>
  4036f8:	e8 97 07 00 00       	call   403e94 <__errno>
  4036fd:	83 38 02             	cmpl   $0x2,(%eax)
  403700:	74 ac                	je     4036ae <.text+0x6e>
  403702:	e8 8d 07 00 00       	call   403e94 <__errno>
  403707:	c7 00 16 00 00 00    	movl   $0x16,(%eax)
  40370d:	eb 9f                	jmp    4036ae <.text+0x6e>
  40370f:	e8 80 07 00 00       	call   403e94 <__errno>
  403714:	c7 00 02 00 00 00    	movl   $0x2,(%eax)
  40371a:	eb 92                	jmp    4036ae <.text+0x6e>
  40371c:	e8 73 07 00 00       	call   403e94 <__errno>
  403721:	c7 00 14 00 00 00    	movl   $0x14,(%eax)
  403727:	eb 85                	jmp    4036ae <.text+0x6e>
  403729:	8d b4 26 00 00 00 00 	lea    0x0(%esi,%eiz,1),%esi
  403730:	56                   	push   %esi
  403731:	53                   	push   %ebx
  403732:	89 d3                	mov    %edx,%ebx
  403734:	81 ec 54 01 00 00    	sub    $0x154,%esp
  40373a:	8d 54 24 10          	lea    0x10(%esp),%edx
  40373e:	89 04 24             	mov    %eax,(%esp)
  403741:	89 54 24 04          	mov    %edx,0x4(%esp)
  403745:	e8 d2 07 00 00       	call   403f1c <_FindNextFileA@8>
  40374a:	83 ec 08             	sub    $0x8,%esp
  40374d:	89 c6                	mov    %eax,%esi
  40374f:	85 c0                	test   %eax,%eax
  403751:	74 75                	je     4037c8 <.text+0x188>
  403753:	31 c0                	xor    %eax,%eax
  403755:	8d 4b 0c             	lea    0xc(%ebx),%ecx
  403758:	66 89 43 06          	mov    %ax,0x6(%ebx)
  40375c:	0f b6 44 24 3c       	movzbl 0x3c(%esp),%eax
  403761:	88 43 0c             	mov    %al,0xc(%ebx)
  403764:	84 c0                	test   %al,%al
  403766:	74 28                	je     403790 <.text+0x150>
  403768:	31 c0                	xor    %eax,%eax
  40376a:	eb 08                	jmp    403774 <.text+0x134>
  40376c:	8d 74 26 00          	lea    0x0(%esi,%eiz,1),%esi
  403770:	0f b7 43 06          	movzwl 0x6(%ebx),%eax
  403774:	83 c0 01             	add    $0x1,%eax
  403777:	66 89 43 06          	mov    %ax,0x6(%ebx)
  40377b:	66 3d 04 01          	cmp    $0x104,%ax
  40377f:	0f b7 c0             	movzwl %ax,%eax
  403782:	0f b6 44 04 3c       	movzbl 0x3c(%esp,%eax,1),%eax
  403787:	83 d1 00             	adc    $0x0,%ecx
  40378a:	88 01                	mov    %al,(%ecx)
  40378c:	84 c0                	test   %al,%al
  40378e:	75 e0                	jne    403770 <.text+0x130>
  403790:	8b 44 24 10          	mov    0x10(%esp),%eax
  403794:	24 58                	and    $0x58,%al
  403796:	83 f8 10             	cmp    $0x10,%eax
  403799:	77 15                	ja     4037b0 <.text+0x170>
  40379b:	89 43 08             	mov    %eax,0x8(%ebx)
  40379e:	81 c4 54 01 00 00    	add    $0x154,%esp
  4037a4:	89 f0                	mov    %esi,%eax
  4037a6:	5b                   	pop    %ebx
  4037a7:	5e                   	pop    %esi
  4037a8:	c3                   	ret    
  4037a9:	8d b4 26 00 00 00 00 	lea    0x0(%esi,%eiz,1),%esi
  4037b0:	c7 43 08 18 00 00 00 	movl   $0x18,0x8(%ebx)
  4037b7:	81 c4 54 01 00 00    	add    $0x154,%esp
  4037bd:	89 f0                	mov    %esi,%eax
  4037bf:	5b                   	pop    %ebx
  4037c0:	5e                   	pop    %esi
  4037c1:	c3                   	ret    
  4037c2:	8d b6 00 00 00 00    	lea    0x0(%esi),%esi
  4037c8:	e8 37 07 00 00       	call   403f04 <_GetLastError@0>
  4037cd:	83 f8 12             	cmp    $0x12,%eax
  4037d0:	74 cc                	je     40379e <.text+0x15e>
  4037d2:	e8 bd 06 00 00       	call   403e94 <__errno>
  4037d7:	c7 00 02 00 00 00    	movl   $0x2,(%eax)
  4037dd:	81 c4 54 01 00 00    	add    $0x154,%esp
  4037e3:	89 f0                	mov    %esi,%eax
  4037e5:	5b                   	pop    %ebx
  4037e6:	5e                   	pop    %esi
  4037e7:	c3                   	ret    
  4037e8:	8d b4 26 00 00 00 00 	lea    0x0(%esi,%eiz,1),%esi
  4037ef:	90                   	nop

004037f0 <___mingw_opendir>:
  4037f0:	55                   	push   %ebp
  4037f1:	57                   	push   %edi
  4037f2:	56                   	push   %esi
  4037f3:	53                   	push   %ebx
  4037f4:	81 ec 2c 01 00 00    	sub    $0x12c,%esp
  4037fa:	8b 84 24 40 01 00 00 	mov    0x140(%esp),%eax
  403801:	85 c0                	test   %eax,%eax
  403803:	0f 84 af 01 00 00    	je     4039b8 <___mingw_opendir+0x1c8>
  403809:	80 38 00             	cmpb   $0x0,(%eax)
  40380c:	0f 84 86 01 00 00    	je     403998 <___mingw_opendir+0x1a8>
  403812:	8d 74 24 1c          	lea    0x1c(%esp),%esi
  403816:	c7 44 24 08 04 01 00 	movl   $0x104,0x8(%esp)
  40381d:	00 
  40381e:	89 44 24 04          	mov    %eax,0x4(%esp)
  403822:	89 34 24             	mov    %esi,(%esp)
  403825:	e8 62 06 00 00       	call   403e8c <__fullpath>
  40382a:	80 7c 24 1c 00       	cmpb   $0x0,0x1c(%esp)
  40382f:	89 f2                	mov    %esi,%edx
  403831:	74 4d                	je     403880 <___mingw_opendir+0x90>
  403833:	8b 0a                	mov    (%edx),%ecx
  403835:	83 c2 04             	add    $0x4,%edx
  403838:	8d 81 ff fe fe fe    	lea    -0x1010101(%ecx),%eax
  40383e:	f7 d1                	not    %ecx
  403840:	21 c8                	and    %ecx,%eax
  403842:	25 80 80 80 80       	and    $0x80808080,%eax
  403847:	74 ea                	je     403833 <___mingw_opendir+0x43>
  403849:	a9 80 80 00 00       	test   $0x8080,%eax
  40384e:	0f 84 34 01 00 00    	je     403988 <___mingw_opendir+0x198>
  403854:	89 c3                	mov    %eax,%ebx
  403856:	00 c3                	add    %al,%bl
  403858:	83 da 03             	sbb    $0x3,%edx
  40385b:	29 f2                	sub    %esi,%edx
  40385d:	0f b6 4c 14 1b       	movzbl 0x1b(%esp,%edx,1),%ecx
  403862:	8d 04 16             	lea    (%esi,%edx,1),%eax
  403865:	80 f9 2f             	cmp    $0x2f,%cl
  403868:	74 40                	je     4038aa <___mingw_opendir+0xba>
  40386a:	80 f9 5c             	cmp    $0x5c,%cl
  40386d:	74 3b                	je     4038aa <___mingw_opendir+0xba>
  40386f:	b9 5c 00 00 00       	mov    $0x5c,%ecx
  403874:	66 89 08             	mov    %cx,(%eax)
  403877:	8d 44 16 01          	lea    0x1(%esi,%edx,1),%eax
  40387b:	eb 2d                	jmp    4038aa <___mingw_opendir+0xba>
  40387d:	8d 76 00             	lea    0x0(%esi),%esi
  403880:	8b 0a                	mov    (%edx),%ecx
  403882:	83 c2 04             	add    $0x4,%edx
  403885:	8d 81 ff fe fe fe    	lea    -0x1010101(%ecx),%eax
  40388b:	f7 d1                	not    %ecx
  40388d:	21 c8                	and    %ecx,%eax
  40388f:	25 80 80 80 80       	and    $0x80808080,%eax
  403894:	74 ea                	je     403880 <___mingw_opendir+0x90>
  403896:	a9 80 80 00 00       	test   $0x8080,%eax
  40389b:	0f 84 d7 00 00 00    	je     403978 <___mingw_opendir+0x188>
  4038a1:	89 c3                	mov    %eax,%ebx
  4038a3:	00 c3                	add    %al,%bl
  4038a5:	89 d0                	mov    %edx,%eax
  4038a7:	83 d8 03             	sbb    $0x3,%eax
  4038aa:	ba 2a 00 00 00       	mov    $0x2a,%edx
  4038af:	89 f3                	mov    %esi,%ebx
  4038b1:	66 89 10             	mov    %dx,(%eax)
  4038b4:	8b 13                	mov    (%ebx),%edx
  4038b6:	83 c3 04             	add    $0x4,%ebx
  4038b9:	8d 82 ff fe fe fe    	lea    -0x1010101(%edx),%eax
  4038bf:	f7 d2                	not    %edx
  4038c1:	21 d0                	and    %edx,%eax
  4038c3:	25 80 80 80 80       	and    $0x80808080,%eax
  4038c8:	74 ea                	je     4038b4 <___mingw_opendir+0xc4>
  4038ca:	a9 80 80 00 00       	test   $0x8080,%eax
  4038cf:	75 06                	jne    4038d7 <___mingw_opendir+0xe7>
  4038d1:	c1 e8 10             	shr    $0x10,%eax
  4038d4:	83 c3 02             	add    $0x2,%ebx
  4038d7:	89 c1                	mov    %eax,%ecx
  4038d9:	00 c1                	add    %al,%cl
  4038db:	83 db 03             	sbb    $0x3,%ebx
  4038de:	29 f3                	sub    %esi,%ebx
  4038e0:	8d 83 1c 01 00 00    	lea    0x11c(%ebx),%eax
  4038e6:	89 04 24             	mov    %eax,(%esp)
  4038e9:	e8 66 05 00 00       	call   403e54 <_malloc>
  4038ee:	89 c5                	mov    %eax,%ebp
  4038f0:	85 c0                	test   %eax,%eax
  4038f2:	0f 84 e7 00 00 00    	je     4039df <___mingw_opendir+0x1ef>
  4038f8:	8d 4b 01             	lea    0x1(%ebx),%ecx
  4038fb:	8d 80 18 01 00 00    	lea    0x118(%eax),%eax
  403901:	83 f9 04             	cmp    $0x4,%ecx
  403904:	72 52                	jb     403958 <___mingw_opendir+0x168>
  403906:	8b 54 0c 18          	mov    0x18(%esp,%ecx,1),%edx
  40390a:	c1 eb 02             	shr    $0x2,%ebx
  40390d:	89 c7                	mov    %eax,%edi
  40390f:	89 54 08 fc          	mov    %edx,-0x4(%eax,%ecx,1)
  403913:	89 d9                	mov    %ebx,%ecx
  403915:	f3 a5                	rep movsl %ds:(%esi),%es:(%edi)
  403917:	89 ea                	mov    %ebp,%edx
  403919:	e8 22 fd ff ff       	call   403640 <.text>
  40391e:	89 85 10 01 00 00    	mov    %eax,0x110(%ebp)
  403924:	83 f8 ff             	cmp    $0xffffffff,%eax
  403927:	0f 84 a3 00 00 00    	je     4039d0 <___mingw_opendir+0x1e0>
  40392d:	b8 10 01 00 00       	mov    $0x110,%eax
  403932:	c7 45 00 00 00 00 00 	movl   $0x0,0x0(%ebp)
  403939:	c7 85 14 01 00 00 00 	movl   $0x0,0x114(%ebp)
  403940:	00 00 00 
  403943:	66 89 45 04          	mov    %ax,0x4(%ebp)
  403947:	81 c4 2c 01 00 00    	add    $0x12c,%esp
  40394d:	89 e8                	mov    %ebp,%eax
  40394f:	5b                   	pop    %ebx
  403950:	5e                   	pop    %esi
  403951:	5f                   	pop    %edi
  403952:	5d                   	pop    %ebp
  403953:	c3                   	ret    
  403954:	8d 74 26 00          	lea    0x0(%esi,%eiz,1),%esi
  403958:	85 c9                	test   %ecx,%ecx
  40395a:	74 bb                	je     403917 <___mingw_opendir+0x127>
  40395c:	0f b6 16             	movzbl (%esi),%edx
  40395f:	88 10                	mov    %dl,(%eax)
  403961:	f6 c1 02             	test   $0x2,%cl
  403964:	74 b1                	je     403917 <___mingw_opendir+0x127>
  403966:	0f b7 54 0e fe       	movzwl -0x2(%esi,%ecx,1),%edx
  40396b:	66 89 54 08 fe       	mov    %dx,-0x2(%eax,%ecx,1)
  403970:	eb a5                	jmp    403917 <___mingw_opendir+0x127>
  403972:	8d b6 00 00 00 00    	lea    0x0(%esi),%esi
  403978:	c1 e8 10             	shr    $0x10,%eax
  40397b:	83 c2 02             	add    $0x2,%edx
  40397e:	e9 1e ff ff ff       	jmp    4038a1 <___mingw_opendir+0xb1>
  403983:	8d 74 26 00          	lea    0x0(%esi,%eiz,1),%esi
  403987:	90                   	nop
  403988:	c1 e8 10             	shr    $0x10,%eax
  40398b:	83 c2 02             	add    $0x2,%edx
  40398e:	e9 c1 fe ff ff       	jmp    403854 <___mingw_opendir+0x64>
  403993:	8d 74 26 00          	lea    0x0(%esi,%eiz,1),%esi
  403997:	90                   	nop
  403998:	e8 f7 04 00 00       	call   403e94 <__errno>
  40399d:	31 ed                	xor    %ebp,%ebp
  40399f:	c7 00 02 00 00 00    	movl   $0x2,(%eax)
  4039a5:	81 c4 2c 01 00 00    	add    $0x12c,%esp
  4039ab:	89 e8                	mov    %ebp,%eax
  4039ad:	5b                   	pop    %ebx
  4039ae:	5e                   	pop    %esi
  4039af:	5f                   	pop    %edi
  4039b0:	5d                   	pop    %ebp
  4039b1:	c3                   	ret    
  4039b2:	8d b6 00 00 00 00    	lea    0x0(%esi),%esi
  4039b8:	e8 d7 04 00 00       	call   403e94 <__errno>
  4039bd:	31 ed                	xor    %ebp,%ebp
  4039bf:	c7 00 16 00 00 00    	movl   $0x16,(%eax)
  4039c5:	eb 80                	jmp    403947 <___mingw_opendir+0x157>
  4039c7:	8d b4 26 00 00 00 00 	lea    0x0(%esi,%eiz,1),%esi
  4039ce:	66 90                	xchg   %ax,%ax
  4039d0:	89 2c 24             	mov    %ebp,(%esp)
  4039d3:	31 ed                	xor    %ebp,%ebp
  4039d5:	e8 16 e7 ff ff       	call   4020f0 <___mingw_aligned_free>
  4039da:	e9 68 ff ff ff       	jmp    403947 <___mingw_opendir+0x157>
  4039df:	e8 b0 04 00 00       	call   403e94 <__errno>
  4039e4:	c7 00 0c 00 00 00    	movl   $0xc,(%eax)
  4039ea:	e9 58 ff ff ff       	jmp    403947 <___mingw_opendir+0x157>
  4039ef:	90                   	nop

004039f0 <___mingw_readdir>:
  4039f0:	53                   	push   %ebx
  4039f1:	83 ec 08             	sub    $0x8,%esp
  4039f4:	8b 44 24 10          	mov    0x10(%esp),%eax
  4039f8:	85 c0                	test   %eax,%eax
  4039fa:	74 34                	je     403a30 <___mingw_readdir+0x40>
  4039fc:	8b 90 14 01 00 00    	mov    0x114(%eax),%edx
  403a02:	89 c3                	mov    %eax,%ebx
  403a04:	8d 4a 01             	lea    0x1(%edx),%ecx
  403a07:	89 88 14 01 00 00    	mov    %ecx,0x114(%eax)
  403a0d:	85 d2                	test   %edx,%edx
  403a0f:	7e 16                	jle    403a27 <___mingw_readdir+0x37>
  403a11:	8b 80 10 01 00 00    	mov    0x110(%eax),%eax
  403a17:	89 da                	mov    %ebx,%edx
  403a19:	e8 12 fd ff ff       	call   403730 <.text+0xf0>
  403a1e:	83 f8 01             	cmp    $0x1,%eax
  403a21:	19 c0                	sbb    %eax,%eax
  403a23:	f7 d0                	not    %eax
  403a25:	21 c3                	and    %eax,%ebx
  403a27:	83 c4 08             	add    $0x8,%esp
  403a2a:	89 d8                	mov    %ebx,%eax
  403a2c:	5b                   	pop    %ebx
  403a2d:	c3                   	ret    
  403a2e:	66 90                	xchg   %ax,%ax
  403a30:	e8 5f 04 00 00       	call   403e94 <__errno>
  403a35:	31 db                	xor    %ebx,%ebx
  403a37:	c7 00 09 00 00 00    	movl   $0x9,(%eax)
  403a3d:	eb e8                	jmp    403a27 <___mingw_readdir+0x37>
  403a3f:	90                   	nop

00403a40 <___mingw_closedir>:
  403a40:	53                   	push   %ebx
  403a41:	83 ec 18             	sub    $0x18,%esp
  403a44:	8b 5c 24 20          	mov    0x20(%esp),%ebx
  403a48:	85 db                	test   %ebx,%ebx
  403a4a:	74 24                	je     403a70 <___mingw_closedir+0x30>
  403a4c:	8b 83 10 01 00 00    	mov    0x110(%ebx),%eax
  403a52:	89 04 24             	mov    %eax,(%esp)
  403a55:	e8 d2 04 00 00       	call   403f2c <_FindClose@4>
  403a5a:	83 ec 04             	sub    $0x4,%esp
  403a5d:	85 c0                	test   %eax,%eax
  403a5f:	74 0f                	je     403a70 <___mingw_closedir+0x30>
  403a61:	89 1c 24             	mov    %ebx,(%esp)
  403a64:	e8 87 e6 ff ff       	call   4020f0 <___mingw_aligned_free>
  403a69:	31 c0                	xor    %eax,%eax
  403a6b:	83 c4 18             	add    $0x18,%esp
  403a6e:	5b                   	pop    %ebx
  403a6f:	c3                   	ret    
  403a70:	e8 1f 04 00 00       	call   403e94 <__errno>
  403a75:	c7 00 09 00 00 00    	movl   $0x9,(%eax)
  403a7b:	b8 ff ff ff ff       	mov    $0xffffffff,%eax
  403a80:	eb e9                	jmp    403a6b <___mingw_closedir+0x2b>
  403a82:	8d b4 26 00 00 00 00 	lea    0x0(%esi,%eiz,1),%esi
  403a89:	8d b4 26 00 00 00 00 	lea    0x0(%esi,%eiz,1),%esi

00403a90 <___mingw_rewinddir>:
  403a90:	53                   	push   %ebx
  403a91:	83 ec 18             	sub    $0x18,%esp
  403a94:	8b 5c 24 20          	mov    0x20(%esp),%ebx
  403a98:	85 db                	test   %ebx,%ebx
  403a9a:	74 15                	je     403ab1 <___mingw_rewinddir+0x21>
  403a9c:	8b 83 10 01 00 00    	mov    0x110(%ebx),%eax
  403aa2:	89 04 24             	mov    %eax,(%esp)
  403aa5:	e8 82 04 00 00       	call   403f2c <_FindClose@4>
  403aaa:	83 ec 04             	sub    $0x4,%esp
  403aad:	85 c0                	test   %eax,%eax
  403aaf:	75 17                	jne    403ac8 <___mingw_rewinddir+0x38>
  403ab1:	e8 de 03 00 00       	call   403e94 <__errno>
  403ab6:	c7 00 09 00 00 00    	movl   $0x9,(%eax)
  403abc:	83 c4 18             	add    $0x18,%esp
  403abf:	5b                   	pop    %ebx
  403ac0:	c3                   	ret    
  403ac1:	8d b4 26 00 00 00 00 	lea    0x0(%esi,%eiz,1),%esi
  403ac8:	8d 83 18 01 00 00    	lea    0x118(%ebx),%eax
  403ace:	89 da                	mov    %ebx,%edx
  403ad0:	e8 6b fb ff ff       	call   403640 <.text>
  403ad5:	89 83 10 01 00 00    	mov    %eax,0x110(%ebx)
  403adb:	83 f8 ff             	cmp    $0xffffffff,%eax
  403ade:	74 dc                	je     403abc <___mingw_rewinddir+0x2c>
  403ae0:	c7 83 14 01 00 00 00 	movl   $0x0,0x114(%ebx)
  403ae7:	00 00 00 
  403aea:	83 c4 18             	add    $0x18,%esp
  403aed:	5b                   	pop    %ebx
  403aee:	c3                   	ret    
  403aef:	90                   	nop

00403af0 <___mingw_telldir>:
  403af0:	83 ec 0c             	sub    $0xc,%esp
  403af3:	8b 44 24 10          	mov    0x10(%esp),%eax
  403af7:	85 c0                	test   %eax,%eax
  403af9:	74 0a                	je     403b05 <___mingw_telldir+0x15>
  403afb:	8b 80 14 01 00 00    	mov    0x114(%eax),%eax
  403b01:	83 c4 0c             	add    $0xc,%esp
  403b04:	c3                   	ret    
  403b05:	e8 8a 03 00 00       	call   403e94 <__errno>
  403b0a:	c7 00 09 00 00 00    	movl   $0x9,(%eax)
  403b10:	b8 ff ff ff ff       	mov    $0xffffffff,%eax
  403b15:	eb ea                	jmp    403b01 <___mingw_telldir+0x11>
  403b17:	8d b4 26 00 00 00 00 	lea    0x0(%esi,%eiz,1),%esi
  403b1e:	66 90                	xchg   %ax,%ax

00403b20 <___mingw_seekdir>:
  403b20:	56                   	push   %esi
  403b21:	53                   	push   %ebx
  403b22:	83 ec 14             	sub    $0x14,%esp
  403b25:	8b 74 24 24          	mov    0x24(%esp),%esi
  403b29:	8b 5c 24 20          	mov    0x20(%esp),%ebx
  403b2d:	85 f6                	test   %esi,%esi
  403b2f:	78 4f                	js     403b80 <___mingw_seekdir+0x60>
  403b31:	89 1c 24             	mov    %ebx,(%esp)
  403b34:	e8 57 ff ff ff       	call   403a90 <___mingw_rewinddir>
  403b39:	85 f6                	test   %esi,%esi
  403b3b:	74 37                	je     403b74 <___mingw_seekdir+0x54>
  403b3d:	83 bb 10 01 00 00 ff 	cmpl   $0xffffffff,0x110(%ebx)
  403b44:	75 1b                	jne    403b61 <___mingw_seekdir+0x41>
  403b46:	eb 2c                	jmp    403b74 <___mingw_seekdir+0x54>
  403b48:	8d b4 26 00 00 00 00 	lea    0x0(%esi,%eiz,1),%esi
  403b4f:	90                   	nop
  403b50:	8b 83 10 01 00 00    	mov    0x110(%ebx),%eax
  403b56:	89 da                	mov    %ebx,%edx
  403b58:	e8 d3 fb ff ff       	call   403730 <.text+0xf0>
  403b5d:	85 c0                	test   %eax,%eax
  403b5f:	74 13                	je     403b74 <___mingw_seekdir+0x54>
  403b61:	8b 83 14 01 00 00    	mov    0x114(%ebx),%eax
  403b67:	83 c0 01             	add    $0x1,%eax
  403b6a:	89 83 14 01 00 00    	mov    %eax,0x114(%ebx)
  403b70:	39 f0                	cmp    %esi,%eax
  403b72:	7c dc                	jl     403b50 <___mingw_seekdir+0x30>
  403b74:	83 c4 14             	add    $0x14,%esp
  403b77:	5b                   	pop    %ebx
  403b78:	5e                   	pop    %esi
  403b79:	c3                   	ret    
  403b7a:	8d b6 00 00 00 00    	lea    0x0(%esi),%esi
  403b80:	e8 0f 03 00 00       	call   403e94 <__errno>
  403b85:	c7 00 16 00 00 00    	movl   $0x16,(%eax)
  403b8b:	83 c4 14             	add    $0x14,%esp
  403b8e:	5b                   	pop    %ebx
  403b8f:	5e                   	pop    %esi
  403b90:	c3                   	ret    
  403b91:	90                   	nop
  403b92:	90                   	nop
  403b93:	90                   	nop
  403b94:	90                   	nop
  403b95:	90                   	nop
  403b96:	90                   	nop
  403b97:	90                   	nop
  403b98:	90                   	nop
  403b99:	90                   	nop
  403b9a:	90                   	nop
  403b9b:	90                   	nop
  403b9c:	90                   	nop
  403b9d:	90                   	nop
  403b9e:	90                   	nop
  403b9f:	90                   	nop

00403ba0 <___mingw_memalign_base>:
  403ba0:	55                   	push   %ebp
  403ba1:	57                   	push   %edi
  403ba2:	56                   	push   %esi
  403ba3:	53                   	push   %ebx
  403ba4:	83 ec 08             	sub    $0x8,%esp
  403ba7:	8b 44 24 1c          	mov    0x1c(%esp),%eax
  403bab:	85 c0                	test   %eax,%eax
  403bad:	0f 84 83 00 00 00    	je     403c36 <___mingw_memalign_base+0x96>
  403bb3:	8b 35 6c 70 40 00    	mov    0x40706c,%esi
  403bb9:	85 f6                	test   %esi,%esi
  403bbb:	74 79                	je     403c36 <___mingw_memalign_base+0x96>
  403bbd:	8d 56 08             	lea    0x8(%esi),%edx
  403bc0:	39 c2                	cmp    %eax,%edx
  403bc2:	77 72                	ja     403c36 <___mingw_memalign_base+0x96>
  403bc4:	8d 50 fc             	lea    -0x4(%eax),%edx
  403bc7:	8b 7c 24 20          	mov    0x20(%esp),%edi
  403bcb:	83 e2 fc             	and    $0xfffffffc,%edx
  403bce:	8b 12                	mov    (%edx),%edx
  403bd0:	89 d3                	mov    %edx,%ebx
  403bd2:	89 d1                	mov    %edx,%ecx
  403bd4:	83 e3 03             	and    $0x3,%ebx
  403bd7:	83 e1 fc             	and    $0xfffffffc,%ecx
  403bda:	89 5f 04             	mov    %ebx,0x4(%edi)
  403bdd:	89 0f                	mov    %ecx,(%edi)
  403bdf:	39 ce                	cmp    %ecx,%esi
  403be1:	77 53                	ja     403c36 <___mingw_memalign_base+0x96>
  403be3:	8d 70 f8             	lea    -0x8(%eax),%esi
  403be6:	39 f1                	cmp    %esi,%ecx
  403be8:	77 4c                	ja     403c36 <___mingw_memalign_base+0x96>
  403bea:	89 4c 24 04          	mov    %ecx,0x4(%esp)
  403bee:	f6 c2 01             	test   $0x1,%dl
  403bf1:	74 4d                	je     403c40 <___mingw_memalign_base+0xa0>
  403bf3:	8b 39                	mov    (%ecx),%edi
  403bf5:	89 fd                	mov    %edi,%ebp
  403bf7:	8d 77 07             	lea    0x7(%edi),%esi
  403bfa:	f7 dd                	neg    %ebp
  403bfc:	89 2c 24             	mov    %ebp,(%esp)
  403bff:	8b 6c 24 20          	mov    0x20(%esp),%ebp
  403c03:	89 7d 08             	mov    %edi,0x8(%ebp)
  403c06:	83 e2 02             	and    $0x2,%edx
  403c09:	74 0b                	je     403c16 <___mingw_memalign_base+0x76>
  403c0b:	8d 53 01             	lea    0x1(%ebx),%edx
  403c0e:	c1 ea 02             	shr    $0x2,%edx
  403c11:	8b 14 91             	mov    (%ecx,%edx,4),%edx
  403c14:	01 d1                	add    %edx,%ecx
  403c16:	8b 6c 24 20          	mov    0x20(%esp),%ebp
  403c1a:	89 55 0c             	mov    %edx,0xc(%ebp)
  403c1d:	83 fb 03             	cmp    $0x3,%ebx
  403c20:	75 03                	jne    403c25 <___mingw_memalign_base+0x85>
  403c22:	8d 77 0b             	lea    0xb(%edi),%esi
  403c25:	8b 2c 24             	mov    (%esp),%ebp
  403c28:	01 f1                	add    %esi,%ecx
  403c2a:	21 cd                	and    %ecx,%ebp
  403c2c:	29 d5                	sub    %edx,%ebp
  403c2e:	39 e8                	cmp    %ebp,%eax
  403c30:	75 04                	jne    403c36 <___mingw_memalign_base+0x96>
  403c32:	8b 44 24 04          	mov    0x4(%esp),%eax
  403c36:	83 c4 08             	add    $0x8,%esp
  403c39:	5b                   	pop    %ebx
  403c3a:	5e                   	pop    %esi
  403c3b:	5f                   	pop    %edi
  403c3c:	5d                   	pop    %ebp
  403c3d:	c3                   	ret    
  403c3e:	66 90                	xchg   %ax,%ax
  403c40:	c7 04 24 f8 ff ff ff 	movl   $0xfffffff8,(%esp)
  403c47:	be 0f 00 00 00       	mov    $0xf,%esi
  403c4c:	bf 08 00 00 00       	mov    $0x8,%edi
  403c51:	eb ac                	jmp    403bff <___mingw_memalign_base+0x5f>
  403c53:	90                   	nop
  403c54:	90                   	nop
  403c55:	90                   	nop
  403c56:	90                   	nop
  403c57:	90                   	nop
  403c58:	90                   	nop
  403c59:	90                   	nop
  403c5a:	90                   	nop
  403c5b:	90                   	nop
  403c5c:	90                   	nop
  403c5d:	90                   	nop
  403c5e:	90                   	nop
  403c5f:	90                   	nop

00403c60 <___mingw_realloc>:
  403c60:	57                   	push   %edi
  403c61:	56                   	push   %esi
  403c62:	53                   	push   %ebx
  403c63:	83 ec 20             	sub    $0x20,%esp
  403c66:	8b 5c 24 30          	mov    0x30(%esp),%ebx
  403c6a:	8b 74 24 34          	mov    0x34(%esp),%esi
  403c6e:	85 db                	test   %ebx,%ebx
  403c70:	74 3a                	je     403cac <___mingw_realloc+0x4c>
  403c72:	8d 7c 24 10          	lea    0x10(%esp),%edi
  403c76:	89 1c 24             	mov    %ebx,(%esp)
  403c79:	89 7c 24 04          	mov    %edi,0x4(%esp)
  403c7d:	e8 1e ff ff ff       	call   403ba0 <___mingw_memalign_base>
  403c82:	39 c3                	cmp    %eax,%ebx
  403c84:	74 26                	je     403cac <___mingw_realloc+0x4c>
  403c86:	85 f6                	test   %esi,%esi
  403c88:	74 1e                	je     403ca8 <___mingw_realloc+0x48>
  403c8a:	39 74 24 1c          	cmp    %esi,0x1c(%esp)
  403c8e:	72 30                	jb     403cc0 <___mingw_realloc+0x60>
  403c90:	e8 ff 01 00 00       	call   403e94 <__errno>
  403c95:	c7 00 16 00 00 00    	movl   $0x16,(%eax)
  403c9b:	83 c4 20             	add    $0x20,%esp
  403c9e:	31 c0                	xor    %eax,%eax
  403ca0:	5b                   	pop    %ebx
  403ca1:	5e                   	pop    %esi
  403ca2:	5f                   	pop    %edi
  403ca3:	c3                   	ret    
  403ca4:	8d 74 26 00          	lea    0x0(%esi,%eiz,1),%esi
  403ca8:	8b 5c 24 10          	mov    0x10(%esp),%ebx
  403cac:	89 74 24 04          	mov    %esi,0x4(%esp)
  403cb0:	89 1c 24             	mov    %ebx,(%esp)
  403cb3:	ff 15 08 82 40 00    	call   *0x408208
  403cb9:	83 c4 20             	add    $0x20,%esp
  403cbc:	5b                   	pop    %ebx
  403cbd:	5e                   	pop    %esi
  403cbe:	5f                   	pop    %edi
  403cbf:	c3                   	ret    
  403cc0:	89 74 24 08          	mov    %esi,0x8(%esp)
  403cc4:	89 7c 24 04          	mov    %edi,0x4(%esp)
  403cc8:	89 1c 24             	mov    %ebx,(%esp)
  403ccb:	e8 10 00 00 00       	call   403ce0 <___mingw_memalign_realloc>
  403cd0:	83 c4 20             	add    $0x20,%esp
  403cd3:	5b                   	pop    %ebx
  403cd4:	5e                   	pop    %esi
  403cd5:	5f                   	pop    %edi
  403cd6:	c3                   	ret    
  403cd7:	90                   	nop
  403cd8:	90                   	nop
  403cd9:	90                   	nop
  403cda:	90                   	nop
  403cdb:	90                   	nop
  403cdc:	90                   	nop
  403cdd:	90                   	nop
  403cde:	90                   	nop
  403cdf:	90                   	nop

00403ce0 <___mingw_memalign_realloc>:
  403ce0:	55                   	push   %ebp
  403ce1:	57                   	push   %edi
  403ce2:	56                   	push   %esi
  403ce3:	53                   	push   %ebx
  403ce4:	83 ec 1c             	sub    $0x1c,%esp
  403ce7:	8b 74 24 34          	mov    0x34(%esp),%esi
  403ceb:	8b 06                	mov    (%esi),%eax
  403ced:	89 04 24             	mov    %eax,(%esp)
  403cf0:	e8 87 01 00 00       	call   403e7c <__msize>
  403cf5:	8b 56 08             	mov    0x8(%esi),%edx
  403cf8:	89 c7                	mov    %eax,%edi
  403cfa:	8b 46 04             	mov    0x4(%esi),%eax
  403cfd:	8d 5a 07             	lea    0x7(%edx),%ebx
  403d00:	83 e0 03             	and    $0x3,%eax
  403d03:	83 f8 03             	cmp    $0x3,%eax
  403d06:	75 03                	jne    403d0b <___mingw_memalign_realloc+0x2b>
  403d08:	8d 5a 0b             	lea    0xb(%edx),%ebx
  403d0b:	8b 44 24 38          	mov    0x38(%esp),%eax
  403d0f:	01 d8                	add    %ebx,%eax
  403d11:	89 44 24 04          	mov    %eax,0x4(%esp)
  403d15:	8b 06                	mov    (%esi),%eax
  403d17:	89 04 24             	mov    %eax,(%esp)
  403d1a:	ff 15 08 82 40 00    	call   *0x408208
  403d20:	8b 16                	mov    (%esi),%edx
  403d22:	39 c2                	cmp    %eax,%edx
  403d24:	0f 84 86 00 00 00    	je     403db0 <___mingw_memalign_realloc+0xd0>
  403d2a:	31 ed                	xor    %ebp,%ebp
  403d2c:	85 c0                	test   %eax,%eax
  403d2e:	74 59                	je     403d89 <___mingw_memalign_realloc+0xa9>
  403d30:	8b 4c 24 30          	mov    0x30(%esp),%ecx
  403d34:	8b 2d 6c 70 40 00    	mov    0x40706c,%ebp
  403d3a:	29 d1                	sub    %edx,%ecx
  403d3c:	85 ed                	test   %ebp,%ebp
  403d3e:	75 58                	jne    403d98 <___mingw_memalign_realloc+0xb8>
  403d40:	a3 6c 70 40 00       	mov    %eax,0x40706c
  403d45:	8b 6e 04             	mov    0x4(%esi),%ebp
  403d48:	03 5e 0c             	add    0xc(%esi),%ebx
  403d4b:	01 c3                	add    %eax,%ebx
  403d4d:	09 c5                	or     %eax,%ebp
  403d4f:	01 c8                	add    %ecx,%eax
  403d51:	89 2e                	mov    %ebp,(%esi)
  403d53:	8b 6e 08             	mov    0x8(%esi),%ebp
  403d56:	f7 dd                	neg    %ebp
  403d58:	21 eb                	and    %ebp,%ebx
  403d5a:	2b 5e 0c             	sub    0xc(%esi),%ebx
  403d5d:	89 dd                	mov    %ebx,%ebp
  403d5f:	39 c3                	cmp    %eax,%ebx
  403d61:	74 1c                	je     403d7f <___mingw_memalign_realloc+0x9f>
  403d63:	2b 54 24 30          	sub    0x30(%esp),%edx
  403d67:	01 d7                	add    %edx,%edi
  403d69:	3b 7c 24 38          	cmp    0x38(%esp),%edi
  403d6d:	77 31                	ja     403da0 <___mingw_memalign_realloc+0xc0>
  403d6f:	89 7c 24 08          	mov    %edi,0x8(%esp)
  403d73:	89 44 24 04          	mov    %eax,0x4(%esp)
  403d77:	89 1c 24             	mov    %ebx,(%esp)
  403d7a:	e8 bd 00 00 00       	call   403e3c <_memmove>
  403d7f:	8b 06                	mov    (%esi),%eax
  403d81:	83 eb 04             	sub    $0x4,%ebx
  403d84:	83 e3 fc             	and    $0xfffffffc,%ebx
  403d87:	89 03                	mov    %eax,(%ebx)
  403d89:	83 c4 1c             	add    $0x1c,%esp
  403d8c:	89 e8                	mov    %ebp,%eax
  403d8e:	5b                   	pop    %ebx
  403d8f:	5e                   	pop    %esi
  403d90:	5f                   	pop    %edi
  403d91:	5d                   	pop    %ebp
  403d92:	c3                   	ret    
  403d93:	8d 74 26 00          	lea    0x0(%esi,%eiz,1),%esi
  403d97:	90                   	nop
  403d98:	39 c5                	cmp    %eax,%ebp
  403d9a:	76 a9                	jbe    403d45 <___mingw_memalign_realloc+0x65>
  403d9c:	eb a2                	jmp    403d40 <___mingw_memalign_realloc+0x60>
  403d9e:	66 90                	xchg   %ax,%ax
  403da0:	8b 7c 24 38          	mov    0x38(%esp),%edi
  403da4:	eb c9                	jmp    403d6f <___mingw_memalign_realloc+0x8f>
  403da6:	8d b4 26 00 00 00 00 	lea    0x0(%esi,%eiz,1),%esi
  403dad:	8d 76 00             	lea    0x0(%esi),%esi
  403db0:	8b 6c 24 30          	mov    0x30(%esp),%ebp
  403db4:	83 c4 1c             	add    $0x1c,%esp
  403db7:	5b                   	pop    %ebx
  403db8:	5e                   	pop    %esi
  403db9:	89 e8                	mov    %ebp,%eax
  403dbb:	5f                   	pop    %edi
  403dbc:	5d                   	pop    %ebp
  403dbd:	c3                   	ret    
  403dbe:	90                   	nop
  403dbf:	90                   	nop

00403dc0 <___chkstk_ms>:
  403dc0:	51                   	push   %ecx
  403dc1:	50                   	push   %eax
  403dc2:	3d 00 10 00 00       	cmp    $0x1000,%eax
  403dc7:	8d 4c 24 0c          	lea    0xc(%esp),%ecx
  403dcb:	72 15                	jb     403de2 <___chkstk_ms+0x22>
  403dcd:	81 e9 00 10 00 00    	sub    $0x1000,%ecx
  403dd3:	83 09 00             	orl    $0x0,(%ecx)
  403dd6:	2d 00 10 00 00       	sub    $0x1000,%eax
  403ddb:	3d 00 10 00 00       	cmp    $0x1000,%eax
  403de0:	77 eb                	ja     403dcd <___chkstk_ms+0xd>
  403de2:	29 c1                	sub    %eax,%ecx
  403de4:	83 09 00             	orl    $0x0,(%ecx)
  403de7:	58                   	pop    %eax
  403de8:	59                   	pop    %ecx
  403de9:	c3                   	ret    
  403dea:	90                   	nop
  403deb:	90                   	nop

00403dec <_stricoll>:
  403dec:	ff 25 80 81 40 00    	jmp    *0x408180
  403df2:	90                   	nop
  403df3:	90                   	nop

00403df4 <_strdup>:
  403df4:	ff 25 7c 81 40 00    	jmp    *0x40817c
  403dfa:	90                   	nop
  403dfb:	90                   	nop

00403dfc <_wcstombs>:
  403dfc:	ff 25 00 82 40 00    	jmp    *0x408200
  403e02:	90                   	nop
  403e03:	90                   	nop

00403e04 <_vfprintf>:
  403e04:	ff 25 fc 81 40 00    	jmp    *0x4081fc
  403e0a:	90                   	nop
  403e0b:	90                   	nop

00403e0c <_tolower>:
  403e0c:	ff 25 f8 81 40 00    	jmp    *0x4081f8
  403e12:	90                   	nop
  403e13:	90                   	nop

00403e14 <_strlen>:
  403e14:	ff 25 f4 81 40 00    	jmp    *0x4081f4
  403e1a:	90                   	nop
  403e1b:	90                   	nop

00403e1c <_strcoll>:
  403e1c:	ff 25 f0 81 40 00    	jmp    *0x4081f0
  403e22:	90                   	nop
  403e23:	90                   	nop

00403e24 <_signal>:
  403e24:	ff 25 ec 81 40 00    	jmp    *0x4081ec
  403e2a:	90                   	nop
  403e2b:	90                   	nop

00403e2c <_setlocale>:
  403e2c:	ff 25 e8 81 40 00    	jmp    *0x4081e8
  403e32:	90                   	nop
  403e33:	90                   	nop

00403e34 <_printf>:
  403e34:	ff 25 e4 81 40 00    	jmp    *0x4081e4
  403e3a:	90                   	nop
  403e3b:	90                   	nop

00403e3c <_memmove>:
  403e3c:	ff 25 e0 81 40 00    	jmp    *0x4081e0
  403e42:	90                   	nop
  403e43:	90                   	nop

00403e44 <_memcpy>:
  403e44:	ff 25 dc 81 40 00    	jmp    *0x4081dc
  403e4a:	90                   	nop
  403e4b:	90                   	nop

00403e4c <_mbstowcs>:
  403e4c:	ff 25 d8 81 40 00    	jmp    *0x4081d8
  403e52:	90                   	nop
  403e53:	90                   	nop

00403e54 <_malloc>:
  403e54:	ff 25 d4 81 40 00    	jmp    *0x4081d4
  403e5a:	90                   	nop
  403e5b:	90                   	nop

00403e5c <_fwrite>:
  403e5c:	ff 25 d0 81 40 00    	jmp    *0x4081d0
  403e62:	90                   	nop
  403e63:	90                   	nop

00403e64 <_calloc>:
  403e64:	ff 25 cc 81 40 00    	jmp    *0x4081cc
  403e6a:	90                   	nop
  403e6b:	90                   	nop

00403e6c <_abort>:
  403e6c:	ff 25 c4 81 40 00    	jmp    *0x4081c4
  403e72:	90                   	nop
  403e73:	90                   	nop

00403e74 <__setmode>:
  403e74:	ff 25 c0 81 40 00    	jmp    *0x4081c0
  403e7a:	90                   	nop
  403e7b:	90                   	nop

00403e7c <__msize>:
  403e7c:	ff 25 b4 81 40 00    	jmp    *0x4081b4
  403e82:	90                   	nop
  403e83:	90                   	nop

00403e84 <__isctype>:
  403e84:	ff 25 b0 81 40 00    	jmp    *0x4081b0
  403e8a:	90                   	nop
  403e8b:	90                   	nop

00403e8c <__fullpath>:
  403e8c:	ff 25 a8 81 40 00    	jmp    *0x4081a8
  403e92:	90                   	nop
  403e93:	90                   	nop

00403e94 <__errno>:
  403e94:	ff 25 a0 81 40 00    	jmp    *0x4081a0
  403e9a:	90                   	nop
  403e9b:	90                   	nop

00403e9c <__cexit>:
  403e9c:	ff 25 9c 81 40 00    	jmp    *0x40819c
  403ea2:	90                   	nop
  403ea3:	90                   	nop

00403ea4 <___p__fmode>:
  403ea4:	ff 25 94 81 40 00    	jmp    *0x408194
  403eaa:	90                   	nop
  403eab:	90                   	nop

00403eac <___p__environ>:
  403eac:	ff 25 90 81 40 00    	jmp    *0x408190
  403eb2:	90                   	nop
  403eb3:	90                   	nop

00403eb4 <___getmainargs>:
  403eb4:	ff 25 88 81 40 00    	jmp    *0x408188
  403eba:	90                   	nop
  403ebb:	90                   	nop

00403ebc <_VirtualQuery@12>:
  403ebc:	ff 25 74 81 40 00    	jmp    *0x408174
  403ec2:	90                   	nop
  403ec3:	90                   	nop

00403ec4 <_VirtualProtect@16>:
  403ec4:	ff 25 70 81 40 00    	jmp    *0x408170
  403eca:	90                   	nop
  403ecb:	90                   	nop

00403ecc <_TlsGetValue@4>:
  403ecc:	ff 25 6c 81 40 00    	jmp    *0x40816c
  403ed2:	90                   	nop
  403ed3:	90                   	nop

00403ed4 <_SetUnhandledExceptionFilter@4>:
  403ed4:	ff 25 68 81 40 00    	jmp    *0x408168
  403eda:	90                   	nop
  403edb:	90                   	nop

00403edc <_LoadLibraryA@4>:
  403edc:	ff 25 64 81 40 00    	jmp    *0x408164
  403ee2:	90                   	nop
  403ee3:	90                   	nop

00403ee4 <_LeaveCriticalSection@4>:
  403ee4:	ff 25 60 81 40 00    	jmp    *0x408160
  403eea:	90                   	nop
  403eeb:	90                   	nop

00403eec <_InitializeCriticalSection@4>:
  403eec:	ff 25 5c 81 40 00    	jmp    *0x40815c
  403ef2:	90                   	nop
  403ef3:	90                   	nop

00403ef4 <_GetProcAddress@8>:
  403ef4:	ff 25 58 81 40 00    	jmp    *0x408158
  403efa:	90                   	nop
  403efb:	90                   	nop

00403efc <_GetModuleHandleA@4>:
  403efc:	ff 25 54 81 40 00    	jmp    *0x408154
  403f02:	90                   	nop
  403f03:	90                   	nop

00403f04 <_GetLastError@0>:
  403f04:	ff 25 50 81 40 00    	jmp    *0x408150
  403f0a:	90                   	nop
  403f0b:	90                   	nop

00403f0c <_GetCommandLineA@0>:
  403f0c:	ff 25 4c 81 40 00    	jmp    *0x40814c
  403f12:	90                   	nop
  403f13:	90                   	nop

00403f14 <_FreeLibrary@4>:
  403f14:	ff 25 48 81 40 00    	jmp    *0x408148
  403f1a:	90                   	nop
  403f1b:	90                   	nop

00403f1c <_FindNextFileA@8>:
  403f1c:	ff 25 44 81 40 00    	jmp    *0x408144
  403f22:	90                   	nop
  403f23:	90                   	nop

00403f24 <_FindFirstFileA@8>:
  403f24:	ff 25 40 81 40 00    	jmp    *0x408140
  403f2a:	90                   	nop
  403f2b:	90                   	nop

00403f2c <_FindClose@4>:
  403f2c:	ff 25 3c 81 40 00    	jmp    *0x40813c
  403f32:	90                   	nop
  403f33:	90                   	nop

00403f34 <_ExitProcess@4>:
  403f34:	ff 25 38 81 40 00    	jmp    *0x408138
  403f3a:	90                   	nop
  403f3b:	90                   	nop

00403f3c <_EnterCriticalSection@4>:
  403f3c:	ff 25 34 81 40 00    	jmp    *0x408134
  403f42:	90                   	nop
  403f43:	90                   	nop

00403f44 <_DeleteCriticalSection@4>:
  403f44:	ff 25 30 81 40 00    	jmp    *0x408130
  403f4a:	90                   	nop
  403f4b:	90                   	nop

00403f4c <.text>:
  403f4c:	66 90                	xchg   %ax,%ax
  403f4e:	66 90                	xchg   %ax,%ax

00403f50 <_register_frame_ctor>:
  403f50:	e9 db d3 ff ff       	jmp    401330 <___gcc_register_frame>
  403f55:	90                   	nop
  403f56:	90                   	nop
  403f57:	90                   	nop
  403f58:	90                   	nop
  403f59:	90                   	nop
  403f5a:	90                   	nop
  403f5b:	90                   	nop
  403f5c:	90                   	nop
  403f5d:	90                   	nop
  403f5e:	90                   	nop
  403f5f:	90                   	nop

00403f60 <__CTOR_LIST__>:
  403f60:	ff                   	(bad)  
  403f61:	ff                   	(bad)  
  403f62:	ff                   	(bad)  
  403f63:	ff                   	.byte 0xff

00403f64 <.ctors.65535>:
  403f64:	50                   	push   %eax
  403f65:	3f                   	aas    
  403f66:	40                   	inc    %eax
  403f67:	00 00                	add    %al,(%eax)
  403f69:	00 00                	add    %al,(%eax)
	...

00403f6c <__DTOR_LIST__>:
  403f6c:	ff                   	(bad)  
  403f6d:	ff                   	(bad)  
  403f6e:	ff                   	(bad)  
  403f6f:	ff 00                	incl   (%eax)
  403f71:	00 00                	add    %al,(%eax)
	...
